MPLINK 5.09, LINKER
Linker Map File - Created Thu Feb 01 15:20:53 2024

                                 Section Info
                  Section       Type    Address   Location Size(Bytes)
                ---------  ---------  ---------  ---------  ---------
                 RES_VECT       code   0x000000    program   0x000004
                   .cinit    romdata   0x000004    program   0x000002
                MAIN_PROG       code   0x000006    program   0x000da6
.config_300000_BUILD/DEFAULT/PRODUCTION/NEWPIC_    romdata   0x300000    program   0x000001
.config_300001_BUILD/DEFAULT/PRODUCTION/NEWPIC_    romdata   0x300001    program   0x000001
.config_300002_BUILD/DEFAULT/PRODUCTION/NEWPIC_    romdata   0x300002    program   0x000001
.config_300003_BUILD/DEFAULT/PRODUCTION/NEWPIC_    romdata   0x300003    program   0x000001
.config_300004_BUILD/DEFAULT/PRODUCTION/NEWPIC_    romdata   0x300004    program   0x000001
.config_300005_BUILD/DEFAULT/PRODUCTION/NEWPIC_    romdata   0x300005    program   0x000001
.config_300006_BUILD/DEFAULT/PRODUCTION/NEWPIC_    romdata   0x300006    program   0x000001
.config_300007_BUILD/DEFAULT/PRODUCTION/NEWPIC_    romdata   0x300007    program   0x000001
.config_300008_BUILD/DEFAULT/PRODUCTION/NEWPIC_    romdata   0x300008    program   0x000001
.config_30000A_BUILD/DEFAULT/PRODUCTION/NEWPIC_    romdata   0x30000a    program   0x000001
.config_30000B_BUILD/DEFAULT/PRODUCTION/NEWPIC_    romdata   0x30000b    program   0x000001
                  INT_VAR      udata   0x000000       data   0x000007



                              Program Memory Usage 
                               Start         End      
                           ---------   ---------      
                            0x000000    0x000dab      
                            0x300000    0x300008      
                            0x30000a    0x30000b      
            3511 out of 33054 program addresses used, program memory utilization is 10%



                              Symbols - Sorted by Name
                     Name    Address   Location    Storage File                     
                ---------  ---------  ---------  --------- ---------                
               Animation1   0x0000d4    program     static C:\Users\nolan\MPLABXProjects\TESTBOUTON0LED.X\newpic_8b_general.asm
               Animation2   0x000126    program     static C:\Users\nolan\MPLABXProjects\TESTBOUTON0LED.X\newpic_8b_general.asm
                    BEGIN   0x000006    program     static C:\Users\nolan\MPLABXProjects\TESTBOUTON0LED.X\newpic_8b_general.asm
                   BOUCLE   0x000086    program     static C:\Users\nolan\MPLABXProjects\TESTBOUTON0LED.X\newpic_8b_general.asm
                  BOUCLE2   0x000098    program     static C:\Users\nolan\MPLABXProjects\TESTBOUTON0LED.X\newpic_8b_general.asm
            Config_Button   0x000178    program     static C:\Users\nolan\MPLABXProjects\TESTBOUTON0LED.X\newpic_8b_general.asm
               Delay160ms   0x0000be    program     static C:\Users\nolan\MPLABXProjects\TESTBOUTON0LED.X\newpic_8b_general.asm
           DelayInnerLoop   0x0000c6    program     static C:\Users\nolan\MPLABXProjects\TESTBOUTON0LED.X\newpic_8b_general.asm
           DelayOuterLoop   0x0000c2    program     static C:\Users\nolan\MPLABXProjects\TESTBOUTON0LED.X\newpic_8b_general.asm
                    LED_0   0x000d6e    program     static C:\Users\nolan\MPLABXProjects\TESTBOUTON0LED.X\newpic_8b_general.asm
                    LED_1   0x000d78    program     static C:\Users\nolan\MPLABXProjects\TESTBOUTON0LED.X\newpic_8b_general.asm
                    LED_2   0x000d7e    program     static C:\Users\nolan\MPLABXProjects\TESTBOUTON0LED.X\newpic_8b_general.asm
                    LED_3   0x000d84    program     static C:\Users\nolan\MPLABXProjects\TESTBOUTON0LED.X\newpic_8b_general.asm
                    LED_4   0x000d8a    program     static C:\Users\nolan\MPLABXProjects\TESTBOUTON0LED.X\newpic_8b_general.asm
                    LED_5   0x000d90    program     static C:\Users\nolan\MPLABXProjects\TESTBOUTON0LED.X\newpic_8b_general.asm
                    LED_6   0x000d9a    program     static C:\Users\nolan\MPLABXProjects\TESTBOUTON0LED.X\newpic_8b_general.asm
                    LED_7   0x000da0    program     static C:\Users\nolan\MPLABXProjects\TESTBOUTON0LED.X\newpic_8b_general.asm
                LED_RESET   0x000da6    program     static C:\Users\nolan\MPLABXProjects\TESTBOUTON0LED.X\newpic_8b_general.asm
               all_blue_1   0x00027c    program     static C:\Users\nolan\MPLABXProjects\TESTBOUTON0LED.X\newpic_8b_general.asm
               all_blue_2   0x000292    program     static C:\Users\nolan\MPLABXProjects\TESTBOUTON0LED.X\newpic_8b_general.asm
               all_blue_3   0x0002a8    program     static C:\Users\nolan\MPLABXProjects\TESTBOUTON0LED.X\newpic_8b_general.asm
               all_blue_4   0x0002be    program     static C:\Users\nolan\MPLABXProjects\TESTBOUTON0LED.X\newpic_8b_general.asm
               all_blue_5   0x0002d4    program     static C:\Users\nolan\MPLABXProjects\TESTBOUTON0LED.X\newpic_8b_general.asm
               all_blue_6   0x0002ea    program     static C:\Users\nolan\MPLABXProjects\TESTBOUTON0LED.X\newpic_8b_general.asm
               all_blue_7   0x000300    program     static C:\Users\nolan\MPLABXProjects\TESTBOUTON0LED.X\newpic_8b_general.asm
               all_blue_8   0x000316    program     static C:\Users\nolan\MPLABXProjects\TESTBOUTON0LED.X\newpic_8b_general.asm
              all_green_1   0x0001cc    program     static C:\Users\nolan\MPLABXProjects\TESTBOUTON0LED.X\newpic_8b_general.asm
              all_green_2   0x0001e2    program     static C:\Users\nolan\MPLABXProjects\TESTBOUTON0LED.X\newpic_8b_general.asm
              all_green_3   0x0001f8    program     static C:\Users\nolan\MPLABXProjects\TESTBOUTON0LED.X\newpic_8b_general.asm
              all_green_4   0x00020e    program     static C:\Users\nolan\MPLABXProjects\TESTBOUTON0LED.X\newpic_8b_general.asm
              all_green_5   0x000224    program     static C:\Users\nolan\MPLABXProjects\TESTBOUTON0LED.X\newpic_8b_general.asm
              all_green_6   0x00023a    program     static C:\Users\nolan\MPLABXProjects\TESTBOUTON0LED.X\newpic_8b_general.asm
              all_green_7   0x000250    program     static C:\Users\nolan\MPLABXProjects\TESTBOUTON0LED.X\newpic_8b_general.asm
              all_green_8   0x000266    program     static C:\Users\nolan\MPLABXProjects\TESTBOUTON0LED.X\newpic_8b_general.asm
                all_red_1   0x00032c    program     static C:\Users\nolan\MPLABXProjects\TESTBOUTON0LED.X\newpic_8b_general.asm
                all_red_2   0x000342    program     static C:\Users\nolan\MPLABXProjects\TESTBOUTON0LED.X\newpic_8b_general.asm
                all_red_3   0x000358    program     static C:\Users\nolan\MPLABXProjects\TESTBOUTON0LED.X\newpic_8b_general.asm
                all_red_4   0x00036e    program     static C:\Users\nolan\MPLABXProjects\TESTBOUTON0LED.X\newpic_8b_general.asm
                all_red_5   0x000384    program     static C:\Users\nolan\MPLABXProjects\TESTBOUTON0LED.X\newpic_8b_general.asm
                all_red_6   0x00039a    program     static C:\Users\nolan\MPLABXProjects\TESTBOUTON0LED.X\newpic_8b_general.asm
                all_red_7   0x0003b0    program     static C:\Users\nolan\MPLABXProjects\TESTBOUTON0LED.X\newpic_8b_general.asm
                all_red_8   0x0003c6    program     static C:\Users\nolan\MPLABXProjects\TESTBOUTON0LED.X\newpic_8b_general.asm
             aller_BOUCLE   0x0000aa    program     static C:\Users\nolan\MPLABXProjects\TESTBOUTON0LED.X\newpic_8b_general.asm
            aller_BOUCLE2   0x0000b4    program     static C:\Users\nolan\MPLABXProjects\TESTBOUTON0LED.X\newpic_8b_general.asm
             color_blue_1   0x000a5e    program     static C:\Users\nolan\MPLABXProjects\TESTBOUTON0LED.X\newpic_8b_general.asm
             color_blue_2   0x000ac0    program     static C:\Users\nolan\MPLABXProjects\TESTBOUTON0LED.X\newpic_8b_general.asm
             color_blue_3   0x000b22    program     static C:\Users\nolan\MPLABXProjects\TESTBOUTON0LED.X\newpic_8b_general.asm
             color_blue_4   0x000b84    program     static C:\Users\nolan\MPLABXProjects\TESTBOUTON0LED.X\newpic_8b_general.asm
             color_blue_5   0x000be6    program     static C:\Users\nolan\MPLABXProjects\TESTBOUTON0LED.X\newpic_8b_general.asm
             color_blue_6   0x000c48    program     static C:\Users\nolan\MPLABXProjects\TESTBOUTON0LED.X\newpic_8b_general.asm
             color_blue_7   0x000caa    program     static C:\Users\nolan\MPLABXProjects\TESTBOUTON0LED.X\newpic_8b_general.asm
             color_blue_8   0x000d0c    program     static C:\Users\nolan\MPLABXProjects\TESTBOUTON0LED.X\newpic_8b_general.asm
            color_green_1   0x00043e    program     static C:\Users\nolan\MPLABXProjects\TESTBOUTON0LED.X\newpic_8b_general.asm
            color_green_2   0x0004a0    program     static C:\Users\nolan\MPLABXProjects\TESTBOUTON0LED.X\newpic_8b_general.asm
            color_green_3   0x000502    program     static C:\Users\nolan\MPLABXProjects\TESTBOUTON0LED.X\newpic_8b_general.asm
            color_green_4   0x000564    program     static C:\Users\nolan\MPLABXProjects\TESTBOUTON0LED.X\newpic_8b_general.asm
            color_green_5   0x0005c6    program     static C:\Users\nolan\MPLABXProjects\TESTBOUTON0LED.X\newpic_8b_general.asm
            color_green_6   0x000628    program     static C:\Users\nolan\MPLABXProjects\TESTBOUTON0LED.X\newpic_8b_general.asm
            color_green_7   0x00068a    program     static C:\Users\nolan\MPLABXProjects\TESTBOUTON0LED.X\newpic_8b_general.asm
            color_green_8   0x0006ec    program     static C:\Users\nolan\MPLABXProjects\TESTBOUTON0LED.X\newpic_8b_general.asm
                color_off   0x0003dc    program     static C:\Users\nolan\MPLABXProjects\TESTBOUTON0LED.X\newpic_8b_general.asm
              color_red_1   0x00074e    program     static C:\Users\nolan\MPLABXProjects\TESTBOUTON0LED.X\newpic_8b_general.asm
              color_red_2   0x0007b0    program     static C:\Users\nolan\MPLABXProjects\TESTBOUTON0LED.X\newpic_8b_general.asm
              color_red_3   0x000812    program     static C:\Users\nolan\MPLABXProjects\TESTBOUTON0LED.X\newpic_8b_general.asm
              color_red_4   0x000874    program     static C:\Users\nolan\MPLABXProjects\TESTBOUTON0LED.X\newpic_8b_general.asm
              color_red_5   0x0008d6    program     static C:\Users\nolan\MPLABXProjects\TESTBOUTON0LED.X\newpic_8b_general.asm
              color_red_6   0x000938    program     static C:\Users\nolan\MPLABXProjects\TESTBOUTON0LED.X\newpic_8b_general.asm
              color_red_7   0x00099a    program     static C:\Users\nolan\MPLABXProjects\TESTBOUTON0LED.X\newpic_8b_general.asm
              color_red_8   0x0009fc    program     static C:\Users\nolan\MPLABXProjects\TESTBOUTON0LED.X\newpic_8b_general.asm
                    send0   0x000180    program     static C:\Users\nolan\MPLABXProjects\TESTBOUTON0LED.X\newpic_8b_general.asm
                    send1   0x0001a4    program     static C:\Users\nolan\MPLABXProjects\TESTBOUTON0LED.X\newpic_8b_general.asm
                   NB_LED   0x000000       data     static C:\Users\nolan\MPLABXProjects\TESTBOUTON0LED.X\newpic_8b_general.asm
                 RESULTHI   0x000001       data     static C:\Users\nolan\MPLABXProjects\TESTBOUTON0LED.X\newpic_8b_general.asm
                 RESULTLO   0x000002       data     static C:\Users\nolan\MPLABXProjects\TESTBOUTON0LED.X\newpic_8b_general.asm
                     cpt1   0x000004       data     static C:\Users\nolan\MPLABXProjects\TESTBOUTON0LED.X\newpic_8b_general.asm
                     cpt2   0x000005       data     static C:\Users\nolan\MPLABXProjects\TESTBOUTON0LED.X\newpic_8b_general.asm
                    incre   0x000003       data     static C:\Users\nolan\MPLABXProjects\TESTBOUTON0LED.X\newpic_8b_general.asm



                              Symbols - Sorted by Address
                     Name    Address   Location    Storage File                     
                ---------  ---------  ---------  --------- ---------                
                    BEGIN   0x000006    program     static C:\Users\nolan\MPLABXProjects\TESTBOUTON0LED.X\newpic_8b_general.asm
                   BOUCLE   0x000086    program     static C:\Users\nolan\MPLABXProjects\TESTBOUTON0LED.X\newpic_8b_general.asm
                  BOUCLE2   0x000098    program     static C:\Users\nolan\MPLABXProjects\TESTBOUTON0LED.X\newpic_8b_general.asm
             aller_BOUCLE   0x0000aa    program     static C:\Users\nolan\MPLABXProjects\TESTBOUTON0LED.X\newpic_8b_general.asm
            aller_BOUCLE2   0x0000b4    program     static C:\Users\nolan\MPLABXProjects\TESTBOUTON0LED.X\newpic_8b_general.asm
               Delay160ms   0x0000be    program     static C:\Users\nolan\MPLABXProjects\TESTBOUTON0LED.X\newpic_8b_general.asm
           DelayOuterLoop   0x0000c2    program     static C:\Users\nolan\MPLABXProjects\TESTBOUTON0LED.X\newpic_8b_general.asm
           DelayInnerLoop   0x0000c6    program     static C:\Users\nolan\MPLABXProjects\TESTBOUTON0LED.X\newpic_8b_general.asm
               Animation1   0x0000d4    program     static C:\Users\nolan\MPLABXProjects\TESTBOUTON0LED.X\newpic_8b_general.asm
               Animation2   0x000126    program     static C:\Users\nolan\MPLABXProjects\TESTBOUTON0LED.X\newpic_8b_general.asm
            Config_Button   0x000178    program     static C:\Users\nolan\MPLABXProjects\TESTBOUTON0LED.X\newpic_8b_general.asm
                    send0   0x000180    program     static C:\Users\nolan\MPLABXProjects\TESTBOUTON0LED.X\newpic_8b_general.asm
                    send1   0x0001a4    program     static C:\Users\nolan\MPLABXProjects\TESTBOUTON0LED.X\newpic_8b_general.asm
              all_green_1   0x0001cc    program     static C:\Users\nolan\MPLABXProjects\TESTBOUTON0LED.X\newpic_8b_general.asm
              all_green_2   0x0001e2    program     static C:\Users\nolan\MPLABXProjects\TESTBOUTON0LED.X\newpic_8b_general.asm
              all_green_3   0x0001f8    program     static C:\Users\nolan\MPLABXProjects\TESTBOUTON0LED.X\newpic_8b_general.asm
              all_green_4   0x00020e    program     static C:\Users\nolan\MPLABXProjects\TESTBOUTON0LED.X\newpic_8b_general.asm
              all_green_5   0x000224    program     static C:\Users\nolan\MPLABXProjects\TESTBOUTON0LED.X\newpic_8b_general.asm
              all_green_6   0x00023a    program     static C:\Users\nolan\MPLABXProjects\TESTBOUTON0LED.X\newpic_8b_general.asm
              all_green_7   0x000250    program     static C:\Users\nolan\MPLABXProjects\TESTBOUTON0LED.X\newpic_8b_general.asm
              all_green_8   0x000266    program     static C:\Users\nolan\MPLABXProjects\TESTBOUTON0LED.X\newpic_8b_general.asm
               all_blue_1   0x00027c    program     static C:\Users\nolan\MPLABXProjects\TESTBOUTON0LED.X\newpic_8b_general.asm
               all_blue_2   0x000292    program     static C:\Users\nolan\MPLABXProjects\TESTBOUTON0LED.X\newpic_8b_general.asm
               all_blue_3   0x0002a8    program     static C:\Users\nolan\MPLABXProjects\TESTBOUTON0LED.X\newpic_8b_general.asm
               all_blue_4   0x0002be    program     static C:\Users\nolan\MPLABXProjects\TESTBOUTON0LED.X\newpic_8b_general.asm
               all_blue_5   0x0002d4    program     static C:\Users\nolan\MPLABXProjects\TESTBOUTON0LED.X\newpic_8b_general.asm
               all_blue_6   0x0002ea    program     static C:\Users\nolan\MPLABXProjects\TESTBOUTON0LED.X\newpic_8b_general.asm
               all_blue_7   0x000300    program     static C:\Users\nolan\MPLABXProjects\TESTBOUTON0LED.X\newpic_8b_general.asm
               all_blue_8   0x000316    program     static C:\Users\nolan\MPLABXProjects\TESTBOUTON0LED.X\newpic_8b_general.asm
                all_red_1   0x00032c    program     static C:\Users\nolan\MPLABXProjects\TESTBOUTON0LED.X\newpic_8b_general.asm
                all_red_2   0x000342    program     static C:\Users\nolan\MPLABXProjects\TESTBOUTON0LED.X\newpic_8b_general.asm
                all_red_3   0x000358    program     static C:\Users\nolan\MPLABXProjects\TESTBOUTON0LED.X\newpic_8b_general.asm
                all_red_4   0x00036e    program     static C:\Users\nolan\MPLABXProjects\TESTBOUTON0LED.X\newpic_8b_general.asm
                all_red_5   0x000384    program     static C:\Users\nolan\MPLABXProjects\TESTBOUTON0LED.X\newpic_8b_general.asm
                all_red_6   0x00039a    program     static C:\Users\nolan\MPLABXProjects\TESTBOUTON0LED.X\newpic_8b_general.asm
                all_red_7   0x0003b0    program     static C:\Users\nolan\MPLABXProjects\TESTBOUTON0LED.X\newpic_8b_general.asm
                all_red_8   0x0003c6    program     static C:\Users\nolan\MPLABXProjects\TESTBOUTON0LED.X\newpic_8b_general.asm
                color_off   0x0003dc    program     static C:\Users\nolan\MPLABXProjects\TESTBOUTON0LED.X\newpic_8b_general.asm
            color_green_1   0x00043e    program     static C:\Users\nolan\MPLABXProjects\TESTBOUTON0LED.X\newpic_8b_general.asm
            color_green_2   0x0004a0    program     static C:\Users\nolan\MPLABXProjects\TESTBOUTON0LED.X\newpic_8b_general.asm
            color_green_3   0x000502    program     static C:\Users\nolan\MPLABXProjects\TESTBOUTON0LED.X\newpic_8b_general.asm
            color_green_4   0x000564    program     static C:\Users\nolan\MPLABXProjects\TESTBOUTON0LED.X\newpic_8b_general.asm
            color_green_5   0x0005c6    program     static C:\Users\nolan\MPLABXProjects\TESTBOUTON0LED.X\newpic_8b_general.asm
            color_green_6   0x000628    program     static C:\Users\nolan\MPLABXProjects\TESTBOUTON0LED.X\newpic_8b_general.asm
            color_green_7   0x00068a    program     static C:\Users\nolan\MPLABXProjects\TESTBOUTON0LED.X\newpic_8b_general.asm
            color_green_8   0x0006ec    program     static C:\Users\nolan\MPLABXProjects\TESTBOUTON0LED.X\newpic_8b_general.asm
              color_red_1   0x00074e    program     static C:\Users\nolan\MPLABXProjects\TESTBOUTON0LED.X\newpic_8b_general.asm
              color_red_2   0x0007b0    program     static C:\Users\nolan\MPLABXProjects\TESTBOUTON0LED.X\newpic_8b_general.asm
              color_red_3   0x000812    program     static C:\Users\nolan\MPLABXProjects\TESTBOUTON0LED.X\newpic_8b_general.asm
              color_red_4   0x000874    program     static C:\Users\nolan\MPLABXProjects\TESTBOUTON0LED.X\newpic_8b_general.asm
              color_red_5   0x0008d6    program     static C:\Users\nolan\MPLABXProjects\TESTBOUTON0LED.X\newpic_8b_general.asm
              color_red_6   0x000938    program     static C:\Users\nolan\MPLABXProjects\TESTBOUTON0LED.X\newpic_8b_general.asm
              color_red_7   0x00099a    program     static C:\Users\nolan\MPLABXProjects\TESTBOUTON0LED.X\newpic_8b_general.asm
              color_red_8   0x0009fc    program     static C:\Users\nolan\MPLABXProjects\TESTBOUTON0LED.X\newpic_8b_general.asm
             color_blue_1   0x000a5e    program     static C:\Users\nolan\MPLABXProjects\TESTBOUTON0LED.X\newpic_8b_general.asm
             color_blue_2   0x000ac0    program     static C:\Users\nolan\MPLABXProjects\TESTBOUTON0LED.X\newpic_8b_general.asm
             color_blue_3   0x000b22    program     static C:\Users\nolan\MPLABXProjects\TESTBOUTON0LED.X\newpic_8b_general.asm
             color_blue_4   0x000b84    program     static C:\Users\nolan\MPLABXProjects\TESTBOUTON0LED.X\newpic_8b_general.asm
             color_blue_5   0x000be6    program     static C:\Users\nolan\MPLABXProjects\TESTBOUTON0LED.X\newpic_8b_general.asm
             color_blue_6   0x000c48    program     static C:\Users\nolan\MPLABXProjects\TESTBOUTON0LED.X\newpic_8b_general.asm
             color_blue_7   0x000caa    program     static C:\Users\nolan\MPLABXProjects\TESTBOUTON0LED.X\newpic_8b_general.asm
             color_blue_8   0x000d0c    program     static C:\Users\nolan\MPLABXProjects\TESTBOUTON0LED.X\newpic_8b_general.asm
                    LED_0   0x000d6e    program     static C:\Users\nolan\MPLABXProjects\TESTBOUTON0LED.X\newpic_8b_general.asm
                    LED_1   0x000d78    program     static C:\Users\nolan\MPLABXProjects\TESTBOUTON0LED.X\newpic_8b_general.asm
                    LED_2   0x000d7e    program     static C:\Users\nolan\MPLABXProjects\TESTBOUTON0LED.X\newpic_8b_general.asm
                    LED_3   0x000d84    program     static C:\Users\nolan\MPLABXProjects\TESTBOUTON0LED.X\newpic_8b_general.asm
                    LED_4   0x000d8a    program     static C:\Users\nolan\MPLABXProjects\TESTBOUTON0LED.X\newpic_8b_general.asm
                    LED_5   0x000d90    program     static C:\Users\nolan\MPLABXProjects\TESTBOUTON0LED.X\newpic_8b_general.asm
                    LED_6   0x000d9a    program     static C:\Users\nolan\MPLABXProjects\TESTBOUTON0LED.X\newpic_8b_general.asm
                    LED_7   0x000da0    program     static C:\Users\nolan\MPLABXProjects\TESTBOUTON0LED.X\newpic_8b_general.asm
                LED_RESET   0x000da6    program     static C:\Users\nolan\MPLABXProjects\TESTBOUTON0LED.X\newpic_8b_general.asm
                   NB_LED   0x000000       data     static C:\Users\nolan\MPLABXProjects\TESTBOUTON0LED.X\newpic_8b_general.asm
                 RESULTHI   0x000001       data     static C:\Users\nolan\MPLABXProjects\TESTBOUTON0LED.X\newpic_8b_general.asm
                 RESULTLO   0x000002       data     static C:\Users\nolan\MPLABXProjects\TESTBOUTON0LED.X\newpic_8b_general.asm
                    incre   0x000003       data     static C:\Users\nolan\MPLABXProjects\TESTBOUTON0LED.X\newpic_8b_general.asm
                     cpt1   0x000004       data     static C:\Users\nolan\MPLABXProjects\TESTBOUTON0LED.X\newpic_8b_general.asm
                     cpt2   0x000005       data     static C:\Users\nolan\MPLABXProjects\TESTBOUTON0LED.X\newpic_8b_general.asm


