MPASM 5.87                           RGB.ASM   2-1-2024  8:48:44         PAGE  1


LOC  OBJECT CODE     LINE SOURCE TEXT
  VALUE

                      00001 
                      00002 #include "p18f25k40.inc"
                      00001         LIST
                      00002 
                      00003 ;==========================================================================
                      00004 ; Build date : Jan 06 2020
                      00005 ;  MPASM PIC18F25K40 processor include
                      00006 ; 
                      00007 ;  (c) Copyright 1999-2020 Microchip Technology, All rights reserved
                      00008 ;==========================================================================
                      00009 
                      04494         LIST
                      00003 
                      00004 ; CONFIG1L
                      00005   CONFIG  FEXTOSC = OFF         ; External Oscillator mode Selection bits (EC (external clock) above 8 M
                            Hz; PFM set to high power)
                      00006   CONFIG  RSTOSC = HFINTOSC_64MHZ; Power-up default value for COSC bits (HFINTOSC with HFFRQ = 64 MHz an
                            d CDIV = 1:1)
                      00007 
                      00008 ; CONFIG1H
                      00009   CONFIG  CLKOUTEN = OFF        ; Clock Out Enable bit (CLKOUT function is disabled)
                      00010   CONFIG  CSWEN = ON            ; Clock Switch Enable bit (Writing to NOSC and NDIV is allowed)
                      00011   CONFIG  FCMEN = ON            ; Fail-Safe Clock Monitor Enable bit (Fail-Safe Clock Monitor enabled)
                      00012 
                      00013 ; CONFIG2L
                      00014   CONFIG  MCLRE = EXTMCLR       ; Master Clear Enable bit (If LVP = 0, MCLR pin is MCLR; If LVP = 1, RE3
                             pin function is MCLR )
                      00015   CONFIG  PWRTE = OFF           ; Power-up Timer Enable bit (Power up timer disabled)
                      00016   CONFIG  LPBOREN = OFF         ; Low-power BOR enable bit (ULPBOR disabled)
                      00017   CONFIG  BOREN = SBORDIS       ; Brown-out Reset Enable bits (Brown-out Reset enabled , SBOREN bit is i
                            gnored)
                      00018 
                      00019 ; CONFIG2H
                      00020   CONFIG  BORV = VBOR_2P45      ; Brown Out Reset Voltage selection bits (Brown-out Reset Voltage (VBOR)
                             set to 2.45V)
                      00021   CONFIG  ZCD = OFF             ; ZCD Disable bit (ZCD disabled. ZCD can be enabled by setting the ZCDSE
                            N bit of ZCDCON)
                      00022   CONFIG  PPS1WAY = ON          ; PPSLOCK bit One-Way Set Enable bit (PPSLOCK bit can be cleared and set
                             only once; PPS registers remain locked after one clear/set cycle)
                      00023   CONFIG  STVREN = ON           ; Stack Full/Underflow Reset Enable bit (Stack full/underflow will cause
                             Reset)
                      00024   CONFIG  DEBUG = OFF           ; Debugger Enable bit (Background debugger disabled)
                      00025   CONFIG  XINST = OFF           ; Extended Instruction Set Enable bit (Extended Instruction Set and Inde
                            xed Addressing Mode disabled)
                      00026 
                      00027 ; CONFIG3L
                      00028   CONFIG  WDTCPS = WDTCPS_31    ; WDT Period Select bits (Divider ratio 1:65536; software control of WDT
                            PS)
                      00029   CONFIG  WDTE = OFF             ; WDT operating mode (WDT enabled regardless of sleep)
                      00030 
                      00031 ; CONFIG3H
                      00032   CONFIG  WDTCWS = WDTCWS_7     ; WDT Window Select bits (window always open (100%); software control; k
                            eyed access not required)
MPASM 5.87                           RGB.ASM   2-1-2024  8:48:44         PAGE  2


LOC  OBJECT CODE     LINE SOURCE TEXT
  VALUE

                      00033   CONFIG  WDTCCS = SC           ; WDT input clock selector (Software Control)
                      00034 
                      00035 ; CONFIG4L
                      00036   CONFIG  WRT0 = OFF            ; Write Protection Block 0 (Block 0 (000800-001FFFh) not write-protected
                            )
                      00037   CONFIG  WRT1 = OFF            ; Write Protection Block 1 (Block 1 (002000-003FFFh) not write-protected
                            )
                      00038   CONFIG  WRT2 = OFF            ; Write Protection Block 2 (Block 2 (004000-005FFFh) not write-protected
                            )
                      00039   CONFIG  WRT3 = OFF            ; Write Protection Block 3 (Block 3 (006000-007FFFh) not write-protected
                            )
                      00040 
                      00041 ; CONFIG4H
                      00042   CONFIG  WRTC = OFF            ; Configuration Register Write Protection bit (Configuration registers (
                            300000-30000Bh) not write-protected)
                      00043   CONFIG  WRTB = OFF            ; Boot Block Write Protection bit (Boot Block (000000-0007FFh) not write
                            -protected)
                      00044   CONFIG  WRTD = OFF            ; Data EEPROM Write Protection bit (Data EEPROM not write-protected)
                      00045   CONFIG  SCANE = ON            ; Scanner Enable bit (Scanner module is available for use, SCANMD bit ca
                            n control the module)
                      00046   CONFIG  LVP = OFF              ; Low Voltage Programming Enable bit (Low voltage programming enabled. 
                            MCLR/VPP pin function is MCLR. MCLRE configuration bit is ignored)
                      00047 
                      00048 ; CONFIG5L
                      00049   CONFIG  CP = OFF              ; UserNVM Program Memory Code Protection bit (UserNVM code protection di
                            sabled)
                      00050   CONFIG  CPD = OFF             ; DataNVM Memory Code Protection bit (DataNVM code protection disabled)
                      00051 
                      00052 ; CONFIG5H
                      00053 
                      00054 ; CONFIG6L
                      00055   CONFIG  EBTR0 = OFF           ; Table Read Protection Block 0 (Block 0 (000800-001FFFh) not protected 
                            from table reads executed in other blocks)
                      00056   CONFIG  EBTR1 = OFF           ; Table Read Protection Block 1 (Block 1 (002000-003FFFh) not protected 
                            from table reads executed in other blocks)
                      00057   CONFIG  EBTR2 = OFF           ; Table Read Protection Block 2 (Block 2 (004000-005FFFh) not protected 
                            from table reads executed in other blocks)
                      00058   CONFIG  EBTR3 = OFF           ; Table Read Protection Block 3 (Block 3 (006000-007FFFh) not protected 
                            from table reads executed in other blocks)
                      00059 
                      00060 ; CONFIG6H
                      00061   CONFIG  EBTRB = OFF           ; Boot Block Table Read Protection bit (Boot Block (000000-0007FFh) not 
                            protected from table reads executed in other blocks)
                      00062 
                      00063 
                      00064 
                      00065 
                      00066 ;*******************************************************************************
                      00067 ;
                      00068 ; TODO Step #3 - Variable Definitions
                      00069 ;
                      00070 ; Refer to datasheet for available data memory (RAM) organization assuming
                      00071 ; relocatible code organization (which is an option in project
MPASM 5.87                           RGB.ASM   2-1-2024  8:48:44         PAGE  3


LOC  OBJECT CODE     LINE SOURCE TEXT
  VALUE

                      00072 ; properties > mpasm (Global Options)).  Absolute mode generally should
                      00073 ; be used sparingly.
                      00074 ;
                      00075 ; Example of using GPR Uninitialized Data
                      00076 ;
                      00077 ;   GPR_VAR        UDATA
                      00078 ;   MYVAR1         RES        1      ; User variable linker places
                      00079 ;   MYVAR2         RES        1      ; User variable linker places
                      00080 ;   MYVAR3         RES        1      ; User variable linker places
                      00081 ;
                      00082 ;   ; Example of using Access Uninitialized Data Section (when available)
                      00083 ;   ; The variables for the context saving in the device datasheet may need
                      00084 ;   ; memory reserved here.
                      00085 ;   INT_VAR        UDATA_ACS
                      00086 ;   W_TEMP         RES        1      ; w register for context saving (ACCESS)
                      00087 ;   STATUS_TEMP    RES        1      ; status used for context saving
                      00088 ;   BSR_TEMP       RES        1      ; bank select used for ISR context saving
                      00089 ;
                      00090 ;*******************************************************************************
                      00091 
                      00092 ; TODO PLACE VARIABLE DEFINITIONS GO HERE
  00000000            00093 LED_PIN equ RB0 ; Définir la broche de la LED
                      00094 
                      00095 INT_VAR UDATA_ACS
000000                00096 NB_LED RES 1
000001                00097 RESULTHI RES 1
000002                00098 RESULTLO RES 1
000003                00099 incre RES 1
Warning[207]: Found label after column 1. (cpt1)
000004                00100  cpt1 RES 1 
Warning[207]: Found label after column 1. (cpt2)
000005                00101  cpt2 RES 2 
                      00102 
                      00103 ;*******************************************************************************
                      00104 ; Reset Vector
                      00105 ;*******************************************************************************
                      00106 
                      00107 RES_VECT  CODE    0x0000            ; processor reset vector
000000 EF?? F???      00108     GOTO    BEGIN                   ; go to beginning of program
                      00109 
                      00110 ;*******************************************************************************
                      00111 ; TODO Step #4 - Interrupt Service Routines
                      00112 ;
                      00113 ; There are a few different ways to structure interrupt routines in the 8
                      00114 ; bit device families.  On PIC18's the high priority and low priority
                      00115 ; interrupts are located at 0x0008 and 0x0018, respectively.  On PIC16's and
                      00116 ; lower the interrupt is at 0x0004.  Between device families there is subtle
                      00117 ; variation in the both the hardware supporting the ISR (for restoring
                      00118 ; interrupt context) as well as the software used to restore the context
                      00119 ; (without corrupting the STATUS bits).
                      00120 ;
                      00121 ; General formats are shown below in relocatible format.
                      00122 ;
MPASM 5.87                           RGB.ASM   2-1-2024  8:48:44         PAGE  4


LOC  OBJECT CODE     LINE SOURCE TEXT
  VALUE

                      00123 ;------------------------------PIC16's and below--------------------------------
                      00124 ;
                      00125 ; ISR       CODE    0x0004           ; interrupt vector location
                      00126 ;
                      00127 ;     <Search the device datasheet for 'context' and copy interrupt
                      00128 ;     context saving code here.  Older devices need context saving code,
                      00129 ;     but newer devices like the 16F#### don't need context saving code.>
                      00130 ;
                      00131 ;     RETFIE
                      00132 ;
                      00133 ;----------------------------------PIC18's--------------------------------------
                      00134 ;
                      00135 ; ISRHV     CODE    0x0008
                      00136 ;     GOTO    HIGH_ISR
                      00137 ; ISRLV     CODE    0x0018
                      00138 ;     GOTO    LOW_ISR
                      00139 ;
                      00140 ; ISRH      CODE                     ; let linker place high ISR routine
                      00141 ; HIGH_ISR
                      00142 ;     <Insert High Priority ISR Here - no SW context saving>
                      00143 ;     RETFIE  FAST
                      00144 ;
                      00145 ; ISRL      CODE                     ; let linker place low ISR routine
                      00146 ; LOW_ISR
                      00147 ;       <Search the device datasheet for 'context' and copy interrupt
                      00148 ;       context saving code here>
                      00149 ;     RETFIE
                      00150 ;
                      00151 ;*******************************************************************************
                      00152 
                      00153 ; TODO INSERT ISR HERE
                      00154 
                      00155 ;*******************************************************************************
                      00156 ; MAIN PROGRAM
                      00157 ;*******************************************************************************
                      00158     
                      00159 MAIN_PROG CODE                      ; let linker place main program
                      00160   
000000                00161 BEGIN
                      00162     
                      00163 ; Configuration de l'oscillateur
Warning[203]: Found opcode in column 1. (MOVLB)
000000 010E           00164 MOVLB 0x0E ; Sélection de la banque d'adresse
Warning[203]: Found opcode in column 1. (MOVLW)
000002 0E70           00165 MOVLW b'01110000'
Warning[203]: Found opcode in column 1. (MOVWF)
000004 6FD8           00166 MOVWF OSCCON1 ; Configurer l'oscillateur pour utiliser l'oscillateur externe (EXTOSC)
Warning[203]: Found opcode in column 1. (MOVWF)
000006 6FD9           00167 MOVWF OSCCON2 ; Configurer l'oscillateur pour utiliser l'oscillateur externe (EXTOSC)
Warning[203]: Found opcode in column 1. (MOVLW)
000008 0E08           00168 MOVLW b'00001000'
Warning[203]: Found opcode in column 1. (MOVWF)
00000A 6FDE           00169 MOVWF OSCFRQ ; Configurer la fréquence de l'oscillateur à 64 MHz
MPASM 5.87                           RGB.ASM   2-1-2024  8:48:44         PAGE  5


LOC  OBJECT CODE     LINE SOURCE TEXT
  VALUE

                      00170  
00000C 010F           00171  BANKSEL ANSELB
00000E 0E00           00172  MOVLW 0x0
000010 6F19           00173  MOVWF ANSELB
                      00174  ;------------------------------------------------------------------------------
                      00175     ;                       Configuration de l'ADC                                |
                      00176     ;------------------------------------------------------------------------------
                      00177  ; début de la configuration de l'ADC
000012 010F           00178     MOVLB 0x0F; ;sélection de la banque d?adresse, data sheet ADPCH : F5Fh, donc F adresse de la bank
000014 0E05           00179     MOVLW b'00000101' ; schéma ADC : ANA5 => data sheet ANA 5 = 000101 (p447)
000016 6F5F           00180     MOVWF ADPCH, 1 ; sélection du channel ADC
000018 0E00           00181     MOVLW b'00000000' 
00001A 6F58           00182     MOVWF ADREF, 1 ; configuration des références analogiques
00001C 0E20           00183     MOVLW b'00100000' ; bit 7-6 Unimplemented: Read as ?0? bit 5-0 000001 = FOSC/4
00001E 6F57           00184     MOVWF ADCLK, 1 ; configuration de l?horloge de l?ADC : 1µs ? TAD ? 6µs
000020 0EFF           00185     MOVLW b'11111111'
000022 6F5E           00186     MOVWF ADPRE, 1 ; configuration du temps de précharge (max. par défaut)
000024 6F5C           00187     MOVWF ADACQ, 1 ; configuration du temps d?acquisition (max. par défaut)
000026 6B5D           00188     CLRF ADCAP, 1 ; pas de capacité additionnelle
000028 0E00           00189     MOVLW b'00000000'
00002A 6F56           00190     MOVWF ADACT, 1 ; pas d?activation auto. de l?ADC sur événement
00002C 0E00           00191     MOVLW b'00000000'
00002E 6F5B           00192     MOVWF ADCON3, 1 ; pas d?interruption sur l?ADC
000030 0E00           00193     MOVLW b'00000000'
000032 6F5A           00194     MOVWF ADCON2, 1 ; configuration de l?ADC en mode basique
000034 0E00           00195     MOVLW b'00000000'
000036 6F59           00196     MOVWF ADCON1, 1 ; configuration des options de précharge
000038 0E80           00197     MOVLW b'10000000'
00003A 6E60           00198     MOVWF ADCON0 ; configuration générale et format du résultat
                      00199    ; fin de la configuration
                      00200 ;------------------------------------------------------------------------------
                      00201     ;                       Configuration de l'PWM                                |
                      00202     ;------------------------------------------------------------------------------
                      00203 
                      00204     ; début de la configuration
00003C 0E04           00205      MOVLW b'00000100'
00003E 6EAE           00206      MOVWF CCPTMRS ; associe le module CCP2 avec le timer 2
000040 010E           00207      MOVLB 0x0E ;data sheet bank d'adresse E 
000042 0E06           00208      MOVLW 0x06 ;data sheet p213 CCP2
000044 6FF8           00209      MOVWF RC1PPS, 1 ; associe le pin RC1 avec le module CCP2 (voir p.213)
000046 828A           00210      BSF TRISC, 1 ; désactivation de la sortie PWM pour configuration
000048 0EC8           00211      MOVLW d'200'
00004A 6EBC           00212      MOVWF T2PR ; fixe la période de PWM (voir formule p.271)
00004C 0E8C           00213      MOVLW b'10001100'
00004E 6EA8           00214      MOVWF CCP2CON ; configuration du module CCP2 et format des données
000050 0E01           00215      MOVLW b'00000001'
000052 6EA7           00216      MOVWF CCPR2H
000054 0E80           00217      MOVLW b'10000000'
000056 6EA6           00218      MOVWF CCPR2L ; fixe le rapport cyclique du signal (voir formule p.272)
000058 0E01           00219      MOVLW b'00000001' 
00005A 6EBF           00220      MOVWF T2CLKCON ; configuration de l?horloge du timer 2 = Fosc/4
00005C 0EB0           00221      MOVLW b'10110000'
00005E 6EBD           00222      MOVWF T2CON ; choix des options du timer 2 (voir p.256)
MPASM 5.87                           RGB.ASM   2-1-2024  8:48:44         PAGE  6


LOC  OBJECT CODE     LINE SOURCE TEXT
  VALUE

000060 928A           00223      BCF TRISC, 1 ; activation de la sortie PWM
                      00224     ; fin de la configuration
                      00225     
                      00226 ; Configuration des ports en sortie
000062 6B8A           00227     CLRF TRISC, 1
                      00228     
000064 6A89           00229     CLRF TRISB
000066 6A88           00230     CLRF TRISA
                      00231 
                      00232     
                      00233     
Warning[203]: Found opcode in column 1. (MOVLB)
000068 010E           00234 MOVLB 0x0E      
Warning[203]: Found opcode in column 1. (BCF)
00006A 968A           00235 BCF TRISC, 3
                      00236 ; Configuration des bits de configuration du microcontrôleur
  00000000            00237 LED_PIN equ LATC0 ; Définir la broche de la LED sur LATC0
00006C 948A           00238  BCF TRISC, 2 ;Mettre le port en sortie
00006E 8485           00239  BSF LATC, 2 ;faire tourner le moteur
                      00240     
                      00241  
                      00242 
                      00243     
000070                00244 BOUCLE
000070 EC?? F???      00245     CALL Animation1
                      00246     
000074 EF?? F???      00247     goto BOUCLE
                      00248   
                      00249   
                      00250 
                      00251 ; Routine de délai de 160 ms environ
000078                00252 Delay160ms:
000078 0EFA           00253     MOVLW   d'250'         ; Chargez la valeur de la boucle externe
00007A 6E??           00254     MOVWF   cpt1
00007C                00255 DelayOuterLoop:
Warning[202]: Argument out of range.  Least significant bits used.
00007C 0E20           00256     MOVLW   d'800'         ; Doublez la valeur de la boucle interne pour un délai plus long
00007E 6E??           00257     MOVWF   cpt2
000080                00258 DelayInnerLoop:
000080 2E??           00259     DECFSZ  cpt2, F        ; Décrémentez et sautez si zéro
000082 EF?? F???      00260     GOTO    DelayInnerLoop ; Répétez la boucle interne
000086 2E??           00261     DECFSZ  cpt1, F        ; Décrémentez la boucle externe et sautez si zéro
000088 EF?? F???      00262     GOTO    DelayOuterLoop ; Répétez la boucle externe
00008C 0012           00263     RETURN
                      00264 
00008E                00265 Animation1: 
                      00266     ;// 2 coup d'horloge
00008E EC?? F???      00267     CALL all_green_1
000092 EC?? F???      00268     CALL Delay160ms  ; Appel de la routine de délai
000096 EC?? F???      00269     CALL color_off
00009A EC?? F???      00270     CALL Delay160ms  ; Appel de la routine de délai   
                      00271     
00009E EC?? F???      00272     CALL all_green_3
MPASM 5.87                           RGB.ASM   2-1-2024  8:48:44         PAGE  7


LOC  OBJECT CODE     LINE SOURCE TEXT
  VALUE

0000A2 EC?? F???      00273     CALL Delay160ms  ; Appel de la routine de délai
0000A6 EC?? F???      00274     CALL color_off
0000AA EC?? F???      00275     CALL Delay160ms  ; Appel de la routine de délai
                      00276     
0000AE EC?? F???      00277     CALL color_off
0000B2 EC?? F???      00278     CALL Delay160ms  ; Appel de la routine de délai
0000B6 EC?? F???      00279     CALL color_off
0000BA EC?? F???      00280     CALL Delay160ms  ; Appel de la routine de délai
                      00281     
0000BE EC?? F???      00282     CALL all_green_7
0000C2 EC?? F???      00283     CALL Delay160ms  ; Appel de la routine de délai
0000C6 EC?? F???      00284     CALL color_off
0000CA EC?? F???      00285     CALL Delay160ms  ; Appel de la routine de délai
                      00286     
0000CE EC?? F???      00287     CALL color_off
0000D2 EC?? F???      00288     CALL Delay160ms  ; Appel de la routine de délai
0000D6 EC?? F???      00289     CALL color_off
0000DA EC?? F???      00290     CALL Delay160ms  ; Appel de la routine de délai
0000DE 0012           00291     RETURN
                      00292 
                      00293 
                      00294 ; **********************     LEDS RGB     **********************    
0000E0                00295 send0
0000E0 8685           00296     BSF LATC, 3
0000E2 0000           00297     NOP
0000E4 0000           00298     NOP
0000E6 0000           00299     NOP
0000E8 0000           00300     NOP
0000EA 9685           00301     BCF LATC, 3
0000EC 0000           00302     NOP
0000EE 0000           00303     NOP
0000F0 0000           00304     NOP
0000F2 0000           00305     NOP
0000F4 0000           00306     NOP
0000F6 0000           00307     NOP
0000F8 0000           00308     NOP
0000FA 0000           00309     NOP
0000FC 0000           00310     NOP
0000FE 0000           00311     NOP
000100 0000           00312     NOP
000102 0012           00313     RETURN 
                      00314     ;// 2 coup d'horloge
000104                00315 send1
000104 8685           00316     BSF LATC, 3
000106 0000           00317     NOP
000108 0000           00318     NOP
00010A 0000           00319     NOP
00010C 0000           00320     NOP
00010E 0000           00321     NOP
000110 0000           00322     NOP
000112 0000           00323     NOP
000114 0000           00324     NOP
000116 0000           00325     NOP
MPASM 5.87                           RGB.ASM   2-1-2024  8:48:44         PAGE  8


LOC  OBJECT CODE     LINE SOURCE TEXT
  VALUE

000118 9685           00326     BCF LATC, 3
00011A 0000           00327     NOP
00011C 0000           00328     NOP
00011E 0000           00329     NOP
000120 0000           00330     NOP
000122 0000           00331     NOP
000124 0000           00332     NOP
000126 0000           00333     NOP
000128 0000           00334     NOP
00012A 0012           00335     RETURN
                      00336     
                      00337 ; Fonctions RGB
                      00338 
00012C                00339 all_green_1:
00012C EC?? F???      00340     CALL color_green_1
000130 EC?? F???      00341     CALL color_green_1
000134 EC?? F???      00342     CALL color_green_1
000138 EC?? F???      00343     CALL color_green_1
00013C EC?? F???      00344     CALL color_green_1
000140 0012           00345     RETURN
                      00346 
000142                00347 all_green_2:
000142 EC?? F???      00348     CALL color_green_2
000146 EC?? F???      00349     CALL color_green_2
00014A EC?? F???      00350     CALL color_green_2
00014E EC?? F???      00351     CALL color_green_2
000152 EC?? F???      00352     CALL color_green_2
000156 0012           00353     RETURN
                      00354 
                      00355 ; Fonction pour allumer toutes les LEDs en vert avec une intensité de niveau 3
000158                00356 all_green_3:
000158 EC?? F???      00357     CALL color_green_3
00015C EC?? F???      00358     CALL color_green_3
000160 EC?? F???      00359     CALL color_green_3
000164 EC?? F???      00360     CALL color_green_3
000168 EC?? F???      00361     CALL color_green_3
00016C 0012           00362     RETURN
                      00363 
00016E                00364 all_green_4:
00016E EC?? F???      00365     CALL color_green_4
000172 EC?? F???      00366     CALL color_green_4
000176 EC?? F???      00367     CALL color_green_4
00017A EC?? F???      00368     CALL color_green_4
00017E EC?? F???      00369     CALL color_green_4
000182 0012           00370     RETURN
                      00371 
                      00372 ; Fonction pour allumer toutes les LEDs en vert avec une intensité de niveau 3
000184                00373 all_green_5:
000184 EC?? F???      00374     CALL color_green_5
000188 EC?? F???      00375     CALL color_green_5
00018C EC?? F???      00376     CALL color_green_5
000190 EC?? F???      00377     CALL color_green_5
000194 EC?? F???      00378     CALL color_green_5
MPASM 5.87                           RGB.ASM   2-1-2024  8:48:44         PAGE  9


LOC  OBJECT CODE     LINE SOURCE TEXT
  VALUE

000198 0012           00379     RETURN
                      00380 
00019A                00381 all_green_6:
00019A EC?? F???      00382     CALL color_green_6
00019E EC?? F???      00383     CALL color_green_6
0001A2 EC?? F???      00384     CALL color_green_6
0001A6 EC?? F???      00385     CALL color_green_6
0001AA EC?? F???      00386     CALL color_green_6
0001AE 0012           00387     RETURN
                      00388 
0001B0                00389 all_green_7:
0001B0 EC?? F???      00390     CALL color_green_7
0001B4 EC?? F???      00391     CALL color_green_7
0001B8 EC?? F???      00392     CALL color_green_7
0001BC EC?? F???      00393     CALL color_green_7
0001C0 EC?? F???      00394     CALL color_green_7
0001C4 0012           00395     RETURN
                      00396 
0001C6                00397 all_green_8:
0001C6 EC?? F???      00398     CALL color_green_8
0001CA EC?? F???      00399     CALL color_green_8
0001CE EC?? F???      00400     CALL color_green_8
0001D2 EC?? F???      00401     CALL color_green_8
0001D6 EC?? F???      00402     CALL color_green_8
0001DA 0012           00403     RETURN
                      00404 
                      00405     
                      00406     ; Fonctions RGB
                      00407     
0001DC                00408 all_blue_1:
0001DC EC?? F???      00409     CALL color_blue_1
0001E0 EC?? F???      00410     CALL color_blue_1
0001E4 EC?? F???      00411     CALL color_blue_1
0001E8 EC?? F???      00412     CALL color_blue_1
0001EC EC?? F???      00413     CALL color_blue_1
0001F0 0012           00414     RETURN
                      00415 
0001F2                00416 all_blue_2:
0001F2 EC?? F???      00417     CALL color_blue_2
0001F6 EC?? F???      00418     CALL color_blue_2
0001FA EC?? F???      00419     CALL color_blue_2
0001FE EC?? F???      00420     CALL color_blue_2
000202 EC?? F???      00421     CALL color_blue_2
000206 0012           00422     RETURN
                      00423 
                      00424 ; Fonction pour allumer toutes les LEDs en bleu avec une intensité de niveau 3
000208                00425 all_blue_3:
000208 EC?? F???      00426     CALL color_blue_3
00020C EC?? F???      00427     CALL color_blue_3
000210 EC?? F???      00428     CALL color_blue_3
000214 EC?? F???      00429     CALL color_blue_3
000218 EC?? F???      00430     CALL color_blue_3
00021C 0012           00431     RETURN
MPASM 5.87                           RGB.ASM   2-1-2024  8:48:44         PAGE 10


LOC  OBJECT CODE     LINE SOURCE TEXT
  VALUE

                      00432 
00021E                00433 all_blue_4:
00021E EC?? F???      00434     CALL color_blue_4
000222 EC?? F???      00435     CALL color_blue_4
000226 EC?? F???      00436     CALL color_blue_4
00022A EC?? F???      00437     CALL color_blue_4
00022E EC?? F???      00438     CALL color_blue_4
000232 0012           00439     RETURN
                      00440 
                      00441 ; Fonction pour allumer toutes les LEDs en bleu avec une intensité de niveau 3
000234                00442 all_blue_5:
000234 EC?? F???      00443     CALL color_blue_5
000238 EC?? F???      00444     CALL color_blue_5
00023C EC?? F???      00445     CALL color_blue_5
000240 EC?? F???      00446     CALL color_blue_5
000244 EC?? F???      00447     CALL color_blue_5
000248 0012           00448     RETURN
                      00449     
                      00450 
00024A                00451 all_blue_6:
00024A EC?? F???      00452     CALL color_blue_6
00024E EC?? F???      00453     CALL color_blue_6
000252 EC?? F???      00454     CALL color_blue_6
000256 EC?? F???      00455     CALL color_blue_6
00025A EC?? F???      00456     CALL color_blue_6
00025E 0012           00457     RETURN
                      00458 
000260                00459 all_blue_7:
000260 EC?? F???      00460     CALL color_blue_7
000264 EC?? F???      00461     CALL color_blue_7
000268 EC?? F???      00462     CALL color_blue_7
00026C EC?? F???      00463     CALL color_blue_7
000270 EC?? F???      00464     CALL color_blue_7
000274 0012           00465     RETURN
                      00466 
000276                00467 all_blue_8:
000276 EC?? F???      00468     CALL color_blue_8
00027A EC?? F???      00469     CALL color_blue_8
00027E EC?? F???      00470     CALL color_blue_8
000282 EC?? F???      00471     CALL color_blue_8
000286 EC?? F???      00472     CALL color_blue_8
00028A 0012           00473     RETURN
                      00474 
                      00475     
                      00476 ; Fonctions RGB
                      00477     
00028C                00478 all_red_1:
00028C EC?? F???      00479     CALL color_red_1
000290 EC?? F???      00480     CALL color_red_1
000294 EC?? F???      00481     CALL color_red_1
000298 EC?? F???      00482     CALL color_red_1
00029C EC?? F???      00483     CALL color_red_1
0002A0 0012           00484     RETURN
MPASM 5.87                           RGB.ASM   2-1-2024  8:48:44         PAGE 11


LOC  OBJECT CODE     LINE SOURCE TEXT
  VALUE

                      00485 
0002A2                00486 all_red_2:
0002A2 EC?? F???      00487     CALL color_red_2
0002A6 EC?? F???      00488     CALL color_red_2
0002AA EC?? F???      00489     CALL color_red_2
0002AE EC?? F???      00490     CALL color_red_2
0002B2 EC?? F???      00491     CALL color_red_2
0002B6 0012           00492     RETURN
                      00493 
                      00494 ; Fonction pour allumer toutes les LEDs en rouge avec une intensité de niveau 3
0002B8                00495 all_red_3:
0002B8 EC?? F???      00496     CALL color_red_3
0002BC EC?? F???      00497     CALL color_red_3
0002C0 EC?? F???      00498     CALL color_red_3
0002C4 EC?? F???      00499     CALL color_red_3
0002C8 EC?? F???      00500     CALL color_red_3
0002CC 0012           00501     RETURN
                      00502 
0002CE                00503 all_red_4:
0002CE EC?? F???      00504     CALL color_red_4
0002D2 EC?? F???      00505     CALL color_red_4
0002D6 EC?? F???      00506     CALL color_red_4
0002DA EC?? F???      00507     CALL color_red_4
0002DE EC?? F???      00508     CALL color_red_4
0002E2 0012           00509     RETURN
                      00510 
                      00511 ; Fonction pour allumer toutes les LEDs en rouge avec une intensité de niveau 3
0002E4                00512 all_red_5:
0002E4 EC?? F???      00513     CALL color_red_5
0002E8 EC?? F???      00514     CALL color_red_5
0002EC EC?? F???      00515     CALL color_red_5
0002F0 EC?? F???      00516     CALL color_red_5
0002F4 EC?? F???      00517     CALL color_red_5
0002F8 0012           00518     RETURN
                      00519     
                      00520 
0002FA                00521 all_red_6:
0002FA EC?? F???      00522     CALL color_red_6
0002FE EC?? F???      00523     CALL color_red_6
000302 EC?? F???      00524     CALL color_red_6
000306 EC?? F???      00525     CALL color_red_6
00030A EC?? F???      00526     CALL color_red_6
00030E 0012           00527     RETURN
                      00528 
000310                00529 all_red_7:
000310 EC?? F???      00530     CALL color_red_7
000314 EC?? F???      00531     CALL color_red_7
000318 EC?? F???      00532     CALL color_red_7
00031C EC?? F???      00533     CALL color_red_7
000320 EC?? F???      00534     CALL color_red_7
000324 0012           00535     RETURN
                      00536 
000326                00537 all_red_8:
MPASM 5.87                           RGB.ASM   2-1-2024  8:48:44         PAGE 12


LOC  OBJECT CODE     LINE SOURCE TEXT
  VALUE

000326 EC?? F???      00538     CALL color_red_8
00032A EC?? F???      00539     CALL color_red_8
00032E EC?? F???      00540     CALL color_red_8
000332 EC?? F???      00541     CALL color_red_8
000336 EC?? F???      00542     CALL color_red_8
00033A 0012           00543     RETURN   
                      00544 
                      00545     
00033C                00546 color_off:
                      00547     ; 8 bits à 1 pour le rouge (intensité faible), suivi de 16 bits à 0 pour le vert et le bleu
00033C EC?? F???      00548     CALL send0
000340 EC?? F???      00549     CALL send0
000344 EC?? F???      00550     CALL send0
000348 EC?? F???      00551     CALL send0
00034C EC?? F???      00552     CALL send0
000350 EC?? F???      00553     CALL send0
000354 EC?? F???      00554     CALL send0
000358 EC?? F???      00555     CALL send0
                      00556     
00035C EC?? F???      00557     CALL send0
000360 EC?? F???      00558     CALL send0
000364 EC?? F???      00559     CALL send0
000368 EC?? F???      00560     CALL send0
00036C EC?? F???      00561     CALL send0
000370 EC?? F???      00562     CALL send0
000374 EC?? F???      00563     CALL send0
000378 EC?? F???      00564     CALL send0
                      00565     
                      00566     
00037C EC?? F???      00567     CALL send0
000380 EC?? F???      00568     CALL send0
000384 EC?? F???      00569     CALL send0
000388 EC?? F???      00570     CALL send0
00038C EC?? F???      00571     CALL send0
000390 EC?? F???      00572     CALL send0
000394 EC?? F???      00573     CALL send0
000398 EC?? F???      00574     CALL send0
                      00575     
00039C 0012           00576     RETURN
                      00577     
                      00578 
00039E                00579 color_green_1:
                      00580     ; 8 bits à 1 pour le rouge (intensité faible), suivi de 16 bits à 0 pour le vert et le bleu
00039E EC?? F???      00581     CALL send1
0003A2 EC?? F???      00582     CALL send0
0003A6 EC?? F???      00583     CALL send0
0003AA EC?? F???      00584     CALL send0
0003AE EC?? F???      00585     CALL send0
0003B2 EC?? F???      00586     CALL send0
0003B6 EC?? F???      00587     CALL send0
0003BA EC?? F???      00588     CALL send0
                      00589     
0003BE EC?? F???      00590     CALL send0
MPASM 5.87                           RGB.ASM   2-1-2024  8:48:44         PAGE 13


LOC  OBJECT CODE     LINE SOURCE TEXT
  VALUE

0003C2 EC?? F???      00591     CALL send0
0003C6 EC?? F???      00592     CALL send0
0003CA EC?? F???      00593     CALL send0
0003CE EC?? F???      00594     CALL send0
0003D2 EC?? F???      00595     CALL send0
0003D6 EC?? F???      00596     CALL send0
0003DA EC?? F???      00597     CALL send0
                      00598     
                      00599     
0003DE EC?? F???      00600     CALL send0
0003E2 EC?? F???      00601     CALL send0
0003E6 EC?? F???      00602     CALL send0
0003EA EC?? F???      00603     CALL send0
0003EE EC?? F???      00604     CALL send0
0003F2 EC?? F???      00605     CALL send0
0003F6 EC?? F???      00606     CALL send0
0003FA EC?? F???      00607     CALL send0
                      00608     
0003FE 0012           00609     RETURN
                      00610     
                      00611 
000400                00612 color_green_2:
                      00613     ; 8 bits à 1 pour le rouge (intensité faible), suivi de 16 bits à 0 pour le vert et le bleu
000400 EC?? F???      00614     CALL send0
000404 EC?? F???      00615     CALL send1
000408 EC?? F???      00616     CALL send0
00040C EC?? F???      00617     CALL send0
000410 EC?? F???      00618     CALL send0
000414 EC?? F???      00619     CALL send0
000418 EC?? F???      00620     CALL send0
00041C EC?? F???      00621     CALL send0
                      00622     
000420 EC?? F???      00623     CALL send0
000424 EC?? F???      00624     CALL send0
000428 EC?? F???      00625     CALL send0
00042C EC?? F???      00626     CALL send0
000430 EC?? F???      00627     CALL send0
000434 EC?? F???      00628     CALL send0
000438 EC?? F???      00629     CALL send0
00043C EC?? F???      00630     CALL send0
                      00631     
                      00632     
000440 EC?? F???      00633     CALL send0
000444 EC?? F???      00634     CALL send0
000448 EC?? F???      00635     CALL send0
00044C EC?? F???      00636     CALL send0
000450 EC?? F???      00637     CALL send0
000454 EC?? F???      00638     CALL send0
000458 EC?? F???      00639     CALL send0
00045C EC?? F???      00640     CALL send0
                      00641     
000460 0012           00642     RETURN
                      00643     
MPASM 5.87                           RGB.ASM   2-1-2024  8:48:44         PAGE 14


LOC  OBJECT CODE     LINE SOURCE TEXT
  VALUE

000462                00644 color_green_3:
                      00645     ; 8 bits à 1 pour le rouge (intensité faible), suivi de 16 bits à 0 pour le vert et le bleu
000462 EC?? F???      00646     CALL send0
000466 EC?? F???      00647     CALL send0
00046A EC?? F???      00648     CALL send1
00046E EC?? F???      00649     CALL send0
000472 EC?? F???      00650     CALL send0
000476 EC?? F???      00651     CALL send0
00047A EC?? F???      00652     CALL send0
00047E EC?? F???      00653     CALL send0
                      00654     
000482 EC?? F???      00655     CALL send0
000486 EC?? F???      00656     CALL send0
00048A EC?? F???      00657     CALL send0
00048E EC?? F???      00658     CALL send0
000492 EC?? F???      00659     CALL send0
000496 EC?? F???      00660     CALL send0
00049A EC?? F???      00661     CALL send0
00049E EC?? F???      00662     CALL send0
                      00663     
                      00664     
0004A2 EC?? F???      00665     CALL send0
0004A6 EC?? F???      00666     CALL send0
0004AA EC?? F???      00667     CALL send0
0004AE EC?? F???      00668     CALL send0
0004B2 EC?? F???      00669     CALL send0
0004B6 EC?? F???      00670     CALL send0
0004BA EC?? F???      00671     CALL send0
0004BE EC?? F???      00672     CALL send0
                      00673     
0004C2 0012           00674     RETURN
                      00675  
0004C4                00676 color_green_4:
                      00677     ; 8 bits à 1 pour le rouge (intensité faible), suivi de 16 bits à 0 pour le vert et le bleu
0004C4 EC?? F???      00678     CALL send0
0004C8 EC?? F???      00679     CALL send0
0004CC EC?? F???      00680     CALL send0
0004D0 EC?? F???      00681     CALL send1
0004D4 EC?? F???      00682     CALL send0
0004D8 EC?? F???      00683     CALL send0
0004DC EC?? F???      00684     CALL send0
0004E0 EC?? F???      00685     CALL send0
                      00686     
0004E4 EC?? F???      00687     CALL send0
0004E8 EC?? F???      00688     CALL send0
0004EC EC?? F???      00689     CALL send0
0004F0 EC?? F???      00690     CALL send0
0004F4 EC?? F???      00691     CALL send0
0004F8 EC?? F???      00692     CALL send0
0004FC EC?? F???      00693     CALL send0
000500 EC?? F???      00694     CALL send0
                      00695     
                      00696     
MPASM 5.87                           RGB.ASM   2-1-2024  8:48:44         PAGE 15


LOC  OBJECT CODE     LINE SOURCE TEXT
  VALUE

000504 EC?? F???      00697     CALL send0
000508 EC?? F???      00698     CALL send0
00050C EC?? F???      00699     CALL send0
000510 EC?? F???      00700     CALL send0
000514 EC?? F???      00701     CALL send0
000518 EC?? F???      00702     CALL send0
00051C EC?? F???      00703     CALL send0
000520 EC?? F???      00704     CALL send0
                      00705     
000524 0012           00706     RETURN   
                      00707     
000526                00708 color_green_5:
                      00709     ; 8 bits à 1 pour le rouge (intensité faible), suivi de 16 bits à 0 pour le vert et le bleu
000526 EC?? F???      00710     CALL send0
00052A EC?? F???      00711     CALL send0
00052E EC?? F???      00712     CALL send0
000532 EC?? F???      00713     CALL send0
000536 EC?? F???      00714     CALL send1
00053A EC?? F???      00715     CALL send0
00053E EC?? F???      00716     CALL send0
000542 EC?? F???      00717     CALL send0
                      00718     
000546 EC?? F???      00719     CALL send0
00054A EC?? F???      00720     CALL send0
00054E EC?? F???      00721     CALL send0
000552 EC?? F???      00722     CALL send0
000556 EC?? F???      00723     CALL send0
00055A EC?? F???      00724     CALL send0
00055E EC?? F???      00725     CALL send0
000562 EC?? F???      00726     CALL send0
                      00727     
                      00728     
000566 EC?? F???      00729     CALL send0
00056A EC?? F???      00730     CALL send0
00056E EC?? F???      00731     CALL send0
000572 EC?? F???      00732     CALL send0
000576 EC?? F???      00733     CALL send0
00057A EC?? F???      00734     CALL send0
00057E EC?? F???      00735     CALL send0
000582 EC?? F???      00736     CALL send0
                      00737     
000586 0012           00738     RETURN    
                      00739     
000588                00740 color_green_6:
                      00741     ; 8 bits à 1 pour le rouge (intensité faible), suivi de 16 bits à 0 pour le vert et le bleu
000588 EC?? F???      00742     CALL send0
00058C EC?? F???      00743     CALL send0
000590 EC?? F???      00744     CALL send0
000594 EC?? F???      00745     CALL send0
000598 EC?? F???      00746     CALL send0
00059C EC?? F???      00747     CALL send1
0005A0 EC?? F???      00748     CALL send1
0005A4 EC?? F???      00749     CALL send1
MPASM 5.87                           RGB.ASM   2-1-2024  8:48:44         PAGE 16


LOC  OBJECT CODE     LINE SOURCE TEXT
  VALUE

                      00750     
0005A8 EC?? F???      00751     CALL send0
0005AC EC?? F???      00752     CALL send0
0005B0 EC?? F???      00753     CALL send0
0005B4 EC?? F???      00754     CALL send0
0005B8 EC?? F???      00755     CALL send0
0005BC EC?? F???      00756     CALL send0
0005C0 EC?? F???      00757     CALL send0
0005C4 EC?? F???      00758     CALL send0
                      00759     
                      00760     
0005C8 EC?? F???      00761     CALL send0
0005CC EC?? F???      00762     CALL send0
0005D0 EC?? F???      00763     CALL send0
0005D4 EC?? F???      00764     CALL send0
0005D8 EC?? F???      00765     CALL send0
0005DC EC?? F???      00766     CALL send0
0005E0 EC?? F???      00767     CALL send0
0005E4 EC?? F???      00768     CALL send0
                      00769     
0005E8 0012           00770     RETURN    
                      00771     
0005EA                00772 color_green_7:
                      00773     ; 8 bits à 1 pour le rouge (intensité faible), suivi de 16 bits à 0 pour le vert et le bleu
0005EA EC?? F???      00774     CALL send0
0005EE EC?? F???      00775     CALL send0
0005F2 EC?? F???      00776     CALL send0
0005F6 EC?? F???      00777     CALL send0
0005FA EC?? F???      00778     CALL send0
0005FE EC?? F???      00779     CALL send1
000602 EC?? F???      00780     CALL send0
000606 EC?? F???      00781     CALL send1
                      00782     
00060A EC?? F???      00783     CALL send0
00060E EC?? F???      00784     CALL send0
000612 EC?? F???      00785     CALL send0
000616 EC?? F???      00786     CALL send0
00061A EC?? F???      00787     CALL send0
00061E EC?? F???      00788     CALL send0
000622 EC?? F???      00789     CALL send0
000626 EC?? F???      00790     CALL send0
                      00791     
                      00792     
00062A EC?? F???      00793     CALL send0
00062E EC?? F???      00794     CALL send0
000632 EC?? F???      00795     CALL send0
000636 EC?? F???      00796     CALL send0
00063A EC?? F???      00797     CALL send0
00063E EC?? F???      00798     CALL send0
000642 EC?? F???      00799     CALL send0
000646 EC?? F???      00800     CALL send0
                      00801     
00064A 0012           00802     RETURN   
MPASM 5.87                           RGB.ASM   2-1-2024  8:48:44         PAGE 17


LOC  OBJECT CODE     LINE SOURCE TEXT
  VALUE

                      00803     
00064C                00804 color_green_8:
                      00805     ; 8 bits à 1 pour le rouge (intensité faible), suivi de 16 bits à 0 pour le vert et le bleu
00064C EC?? F???      00806     CALL send0
000650 EC?? F???      00807     CALL send0
000654 EC?? F???      00808     CALL send0
000658 EC?? F???      00809     CALL send0
00065C EC?? F???      00810     CALL send0
000660 EC?? F???      00811     CALL send0
000664 EC?? F???      00812     CALL send1
000668 EC?? F???      00813     CALL send1
                      00814     
00066C EC?? F???      00815     CALL send0
000670 EC?? F???      00816     CALL send0
000674 EC?? F???      00817     CALL send0
000678 EC?? F???      00818     CALL send0
00067C EC?? F???      00819     CALL send0
000680 EC?? F???      00820     CALL send0
000684 EC?? F???      00821     CALL send0
000688 EC?? F???      00822     CALL send0
                      00823     
                      00824     
00068C EC?? F???      00825     CALL send0
000690 EC?? F???      00826     CALL send0
000694 EC?? F???      00827     CALL send0
000698 EC?? F???      00828     CALL send0
00069C EC?? F???      00829     CALL send0
0006A0 EC?? F???      00830     CALL send0
0006A4 EC?? F???      00831     CALL send0
0006A8 EC?? F???      00832     CALL send0
                      00833     
0006AC 0012           00834     RETURN 
                      00835     
                      00836     
                      00837    
                      00838     
0006AE                00839 color_red_1:
                      00840     ; 8 bits à 1 pour le rouge (intensité faible), suivi de 16 bits à 0 pour le vert et le bleu
                      00841     
                      00842     
0006AE EC?? F???      00843     CALL send0
0006B2 EC?? F???      00844     CALL send0
0006B6 EC?? F???      00845     CALL send0
0006BA EC?? F???      00846     CALL send0
0006BE EC?? F???      00847     CALL send0
0006C2 EC?? F???      00848     CALL send0
0006C6 EC?? F???      00849     CALL send0
0006CA EC?? F???      00850     CALL send0
                      00851     
0006CE EC?? F???      00852     CALL send1
0006D2 EC?? F???      00853     CALL send0
0006D6 EC?? F???      00854     CALL send0
0006DA EC?? F???      00855     CALL send0
MPASM 5.87                           RGB.ASM   2-1-2024  8:48:44         PAGE 18


LOC  OBJECT CODE     LINE SOURCE TEXT
  VALUE

0006DE EC?? F???      00856     CALL send0
0006E2 EC?? F???      00857     CALL send0
0006E6 EC?? F???      00858     CALL send0
0006EA EC?? F???      00859     CALL send0
                      00860     
0006EE EC?? F???      00861     CALL send0
0006F2 EC?? F???      00862     CALL send0
0006F6 EC?? F???      00863     CALL send0
0006FA EC?? F???      00864     CALL send0
0006FE EC?? F???      00865     CALL send0
000702 EC?? F???      00866     CALL send0
000706 EC?? F???      00867     CALL send0
00070A EC?? F???      00868     CALL send0
                      00869     
00070E 0012           00870     RETURN
                      00871     
                      00872 
000710                00873 color_red_2:
                      00874     ; 8 bits à 1 pour le rouge (intensité faible), suivi de 16 bits à 0 pour le vert et le bleu
                      00875     
                      00876     
000710 EC?? F???      00877     CALL send0
000714 EC?? F???      00878     CALL send0
000718 EC?? F???      00879     CALL send0
00071C EC?? F???      00880     CALL send0
000720 EC?? F???      00881     CALL send0
000724 EC?? F???      00882     CALL send0
000728 EC?? F???      00883     CALL send0
00072C EC?? F???      00884     CALL send0
                      00885     
000730 EC?? F???      00886     CALL send0
000734 EC?? F???      00887     CALL send1
000738 EC?? F???      00888     CALL send0
00073C EC?? F???      00889     CALL send0
000740 EC?? F???      00890     CALL send0
000744 EC?? F???      00891     CALL send0
000748 EC?? F???      00892     CALL send0
00074C EC?? F???      00893     CALL send0
                      00894     
000750 EC?? F???      00895     CALL send0
000754 EC?? F???      00896     CALL send0
000758 EC?? F???      00897     CALL send0
00075C EC?? F???      00898     CALL send0
000760 EC?? F???      00899     CALL send0
000764 EC?? F???      00900     CALL send0
000768 EC?? F???      00901     CALL send0
00076C EC?? F???      00902     CALL send0
                      00903     
000770 0012           00904     RETURN
                      00905     
000772                00906 color_red_3:
                      00907     ; 8 bits à 1 pour le rouge (intensité faible), suivi de 16 bits à 0 pour le vert et le bleu
                      00908     
MPASM 5.87                           RGB.ASM   2-1-2024  8:48:44         PAGE 19


LOC  OBJECT CODE     LINE SOURCE TEXT
  VALUE

                      00909     
000772 EC?? F???      00910     CALL send0
000776 EC?? F???      00911     CALL send0
00077A EC?? F???      00912     CALL send0
00077E EC?? F???      00913     CALL send0
000782 EC?? F???      00914     CALL send0
000786 EC?? F???      00915     CALL send0
00078A EC?? F???      00916     CALL send0
00078E EC?? F???      00917     CALL send0
                      00918     
000792 EC?? F???      00919     CALL send0
000796 EC?? F???      00920     CALL send0
00079A EC?? F???      00921     CALL send1
00079E EC?? F???      00922     CALL send0
0007A2 EC?? F???      00923     CALL send0
0007A6 EC?? F???      00924     CALL send0
0007AA EC?? F???      00925     CALL send0
0007AE EC?? F???      00926     CALL send0
                      00927     
0007B2 EC?? F???      00928     CALL send0
0007B6 EC?? F???      00929     CALL send0
0007BA EC?? F???      00930     CALL send0
0007BE EC?? F???      00931     CALL send0
0007C2 EC?? F???      00932     CALL send0
0007C6 EC?? F???      00933     CALL send0
0007CA EC?? F???      00934     CALL send0
0007CE EC?? F???      00935     CALL send0
                      00936     
0007D2 0012           00937     RETURN
                      00938  
0007D4                00939 color_red_4:
                      00940     ; 8 bits à 1 pour le rouge (intensité faible), suivi de 16 bits à 0 pour le vert et le bleu
                      00941     
                      00942     
0007D4 EC?? F???      00943     CALL send0
0007D8 EC?? F???      00944     CALL send0
0007DC EC?? F???      00945     CALL send0
0007E0 EC?? F???      00946     CALL send0
0007E4 EC?? F???      00947     CALL send0
0007E8 EC?? F???      00948     CALL send0
0007EC EC?? F???      00949     CALL send0
0007F0 EC?? F???      00950     CALL send0
                      00951     
0007F4 EC?? F???      00952     CALL send0
0007F8 EC?? F???      00953     CALL send0
0007FC EC?? F???      00954     CALL send0
000800 EC?? F???      00955     CALL send1
000804 EC?? F???      00956     CALL send0
000808 EC?? F???      00957     CALL send0
00080C EC?? F???      00958     CALL send0
000810 EC?? F???      00959     CALL send0
                      00960     
000814 EC?? F???      00961     CALL send0
MPASM 5.87                           RGB.ASM   2-1-2024  8:48:44         PAGE 20


LOC  OBJECT CODE     LINE SOURCE TEXT
  VALUE

000818 EC?? F???      00962     CALL send0
00081C EC?? F???      00963     CALL send0
000820 EC?? F???      00964     CALL send0
000824 EC?? F???      00965     CALL send0
000828 EC?? F???      00966     CALL send0
00082C EC?? F???      00967     CALL send0
000830 EC?? F???      00968     CALL send0
                      00969     
000834 0012           00970     RETURN   
                      00971     
000836                00972 color_red_5:
                      00973     ; 8 bits à 1 pour le rouge (intensité faible), suivi de 16 bits à 0 pour le vert et le bleu
                      00974     
                      00975     
000836 EC?? F???      00976     CALL send0
00083A EC?? F???      00977     CALL send0
00083E EC?? F???      00978     CALL send0
000842 EC?? F???      00979     CALL send0
000846 EC?? F???      00980     CALL send0
00084A EC?? F???      00981     CALL send0
00084E EC?? F???      00982     CALL send0
000852 EC?? F???      00983     CALL send0
                      00984     
000856 EC?? F???      00985     CALL send0
00085A EC?? F???      00986     CALL send0
00085E EC?? F???      00987     CALL send0
000862 EC?? F???      00988     CALL send0
000866 EC?? F???      00989     CALL send1
00086A EC?? F???      00990     CALL send0
00086E EC?? F???      00991     CALL send0
000872 EC?? F???      00992     CALL send0
                      00993     
000876 EC?? F???      00994     CALL send0
00087A EC?? F???      00995     CALL send0
00087E EC?? F???      00996     CALL send0
000882 EC?? F???      00997     CALL send0
000886 EC?? F???      00998     CALL send0
00088A EC?? F???      00999     CALL send0
00088E EC?? F???      01000     CALL send0
000892 EC?? F???      01001     CALL send0
                      01002     
000896 0012           01003     RETURN    
                      01004     
000898                01005 color_red_6:
                      01006     ; 8 bits à 1 pour le rouge (intensité faible), suivi de 16 bits à 0 pour le vert et le bleu
                      01007     
                      01008     
000898 EC?? F???      01009     CALL send0
00089C EC?? F???      01010     CALL send0
0008A0 EC?? F???      01011     CALL send0
0008A4 EC?? F???      01012     CALL send0
0008A8 EC?? F???      01013     CALL send0
0008AC EC?? F???      01014     CALL send0
MPASM 5.87                           RGB.ASM   2-1-2024  8:48:44         PAGE 21


LOC  OBJECT CODE     LINE SOURCE TEXT
  VALUE

0008B0 EC?? F???      01015     CALL send0
0008B4 EC?? F???      01016     CALL send0
                      01017     
0008B8 EC?? F???      01018     CALL send0
0008BC EC?? F???      01019     CALL send0
0008C0 EC?? F???      01020     CALL send0
0008C4 EC?? F???      01021     CALL send0
0008C8 EC?? F???      01022     CALL send0
0008CC EC?? F???      01023     CALL send1
0008D0 EC?? F???      01024     CALL send1
0008D4 EC?? F???      01025     CALL send1
                      01026     
0008D8 EC?? F???      01027     CALL send0
0008DC EC?? F???      01028     CALL send0
0008E0 EC?? F???      01029     CALL send0
0008E4 EC?? F???      01030     CALL send0
0008E8 EC?? F???      01031     CALL send0
0008EC EC?? F???      01032     CALL send0
0008F0 EC?? F???      01033     CALL send0
0008F4 EC?? F???      01034     CALL send0
                      01035     
0008F8 0012           01036     RETURN    
                      01037     
0008FA                01038 color_red_7:
                      01039     ; 8 bits à 1 pour le rouge (intensité faible), suivi de 16 bits à 0 pour le vert et le bleu
                      01040     
                      01041     
0008FA EC?? F???      01042     CALL send0
0008FE EC?? F???      01043     CALL send0
000902 EC?? F???      01044     CALL send0
000906 EC?? F???      01045     CALL send0
00090A EC?? F???      01046     CALL send0
00090E EC?? F???      01047     CALL send0
000912 EC?? F???      01048     CALL send0
000916 EC?? F???      01049     CALL send0
                      01050     
00091A EC?? F???      01051     CALL send0
00091E EC?? F???      01052     CALL send0
000922 EC?? F???      01053     CALL send0
000926 EC?? F???      01054     CALL send0
00092A EC?? F???      01055     CALL send0
00092E EC?? F???      01056     CALL send1
000932 EC?? F???      01057     CALL send0
000936 EC?? F???      01058     CALL send1
                      01059     
00093A EC?? F???      01060     CALL send0
00093E EC?? F???      01061     CALL send0
000942 EC?? F???      01062     CALL send0
000946 EC?? F???      01063     CALL send0
00094A EC?? F???      01064     CALL send0
00094E EC?? F???      01065     CALL send0
000952 EC?? F???      01066     CALL send0
000956 EC?? F???      01067     CALL send0
MPASM 5.87                           RGB.ASM   2-1-2024  8:48:44         PAGE 22


LOC  OBJECT CODE     LINE SOURCE TEXT
  VALUE

                      01068     
00095A 0012           01069     RETURN   
                      01070     
00095C                01071 color_red_8:
                      01072     ; 8 bits à 1 pour le rouge (intensité faible), suivi de 16 bits à 0 pour le vert et le bleu
                      01073     
                      01074     
00095C EC?? F???      01075     CALL send0
000960 EC?? F???      01076     CALL send0
000964 EC?? F???      01077     CALL send0
000968 EC?? F???      01078     CALL send0
00096C EC?? F???      01079     CALL send0
000970 EC?? F???      01080     CALL send0
000974 EC?? F???      01081     CALL send0
000978 EC?? F???      01082     CALL send0
                      01083     
00097C EC?? F???      01084     CALL send0
000980 EC?? F???      01085     CALL send0
000984 EC?? F???      01086     CALL send0
000988 EC?? F???      01087     CALL send0
00098C EC?? F???      01088     CALL send0
000990 EC?? F???      01089     CALL send0
000994 EC?? F???      01090     CALL send1
000998 EC?? F???      01091     CALL send1
                      01092     
00099C EC?? F???      01093     CALL send0
0009A0 EC?? F???      01094     CALL send0
0009A4 EC?? F???      01095     CALL send0
0009A8 EC?? F???      01096     CALL send0
0009AC EC?? F???      01097     CALL send0
0009B0 EC?? F???      01098     CALL send0
0009B4 EC?? F???      01099     CALL send0
0009B8 EC?? F???      01100     CALL send0
                      01101     
0009BC 0012           01102     RETURN 
                      01103     
                      01104     
                      01105     
                      01106        
                      01107     
                      01108     
0009BE                01109 color_blue_1:
                      01110     ; 8 bits à 1 pour le rouge (intensité faible), suivi de 16 bits à 0 pour le vert et le bleu
                      01111     
                      01112     
0009BE EC?? F???      01113     CALL send0
0009C2 EC?? F???      01114     CALL send0
0009C6 EC?? F???      01115     CALL send0
0009CA EC?? F???      01116     CALL send0
0009CE EC?? F???      01117     CALL send0
0009D2 EC?? F???      01118     CALL send0
0009D6 EC?? F???      01119     CALL send0
0009DA EC?? F???      01120     CALL send0
MPASM 5.87                           RGB.ASM   2-1-2024  8:48:44         PAGE 23


LOC  OBJECT CODE     LINE SOURCE TEXT
  VALUE

                      01121     
                      01122     
0009DE EC?? F???      01123     CALL send0
0009E2 EC?? F???      01124     CALL send0
0009E6 EC?? F???      01125     CALL send0
0009EA EC?? F???      01126     CALL send0
0009EE EC?? F???      01127     CALL send0
0009F2 EC?? F???      01128     CALL send0
0009F6 EC?? F???      01129     CALL send0
0009FA EC?? F???      01130     CALL send0
                      01131     
0009FE EC?? F???      01132     CALL send1
000A02 EC?? F???      01133     CALL send0
000A06 EC?? F???      01134     CALL send0
000A0A EC?? F???      01135     CALL send0
000A0E EC?? F???      01136     CALL send0
000A12 EC?? F???      01137     CALL send0
000A16 EC?? F???      01138     CALL send0
000A1A EC?? F???      01139     CALL send0
                      01140     
000A1E 0012           01141     RETURN
                      01142     
                      01143 
000A20                01144 color_blue_2:
                      01145     ; 8 bits à 1 pour le rouge (intensité faible), suivi de 16 bits à 0 pour le vert et le bleu
                      01146     
                      01147     
000A20 EC?? F???      01148     CALL send0
000A24 EC?? F???      01149     CALL send0
000A28 EC?? F???      01150     CALL send0
000A2C EC?? F???      01151     CALL send0
000A30 EC?? F???      01152     CALL send0
000A34 EC?? F???      01153     CALL send0
000A38 EC?? F???      01154     CALL send0
000A3C EC?? F???      01155     CALL send0
                      01156     
                      01157     
000A40 EC?? F???      01158     CALL send0
000A44 EC?? F???      01159     CALL send0
000A48 EC?? F???      01160     CALL send0
000A4C EC?? F???      01161     CALL send0
000A50 EC?? F???      01162     CALL send0
000A54 EC?? F???      01163     CALL send0
000A58 EC?? F???      01164     CALL send0
000A5C EC?? F???      01165     CALL send0
                      01166     
000A60 EC?? F???      01167     CALL send0
000A64 EC?? F???      01168     CALL send1
000A68 EC?? F???      01169     CALL send0
000A6C EC?? F???      01170     CALL send0
000A70 EC?? F???      01171     CALL send0
000A74 EC?? F???      01172     CALL send0
000A78 EC?? F???      01173     CALL send0
MPASM 5.87                           RGB.ASM   2-1-2024  8:48:44         PAGE 24


LOC  OBJECT CODE     LINE SOURCE TEXT
  VALUE

000A7C EC?? F???      01174     CALL send0
                      01175     
000A80 0012           01176     RETURN
                      01177     
000A82                01178 color_blue_3:
                      01179     ; 8 bits à 1 pour le rouge (intensité faible), suivi de 16 bits à 0 pour le vert et le bleu
                      01180     
                      01181     
000A82 EC?? F???      01182     CALL send0
000A86 EC?? F???      01183     CALL send0
000A8A EC?? F???      01184     CALL send0
000A8E EC?? F???      01185     CALL send0
000A92 EC?? F???      01186     CALL send0
000A96 EC?? F???      01187     CALL send0
000A9A EC?? F???      01188     CALL send0
000A9E EC?? F???      01189     CALL send0
                      01190     
                      01191     
000AA2 EC?? F???      01192     CALL send0
000AA6 EC?? F???      01193     CALL send0
000AAA EC?? F???      01194     CALL send0
000AAE EC?? F???      01195     CALL send0
000AB2 EC?? F???      01196     CALL send0
000AB6 EC?? F???      01197     CALL send0
000ABA EC?? F???      01198     CALL send0
000ABE EC?? F???      01199     CALL send0
                      01200     
000AC2 EC?? F???      01201     CALL send0
000AC6 EC?? F???      01202     CALL send0
000ACA EC?? F???      01203     CALL send1
000ACE EC?? F???      01204     CALL send0
000AD2 EC?? F???      01205     CALL send0
000AD6 EC?? F???      01206     CALL send0
000ADA EC?? F???      01207     CALL send0
000ADE EC?? F???      01208     CALL send0
                      01209     
                      01210     
000AE2 0012           01211     RETURN
                      01212  
000AE4                01213 color_blue_4:
                      01214     ; 8 bits à 1 pour le rouge (intensité faible), suivi de 16 bits à 0 pour le vert et le bleu
                      01215     
                      01216     
000AE4 EC?? F???      01217     CALL send0
000AE8 EC?? F???      01218     CALL send0
000AEC EC?? F???      01219     CALL send0
000AF0 EC?? F???      01220     CALL send0
000AF4 EC?? F???      01221     CALL send0
000AF8 EC?? F???      01222     CALL send0
000AFC EC?? F???      01223     CALL send0
000B00 EC?? F???      01224     CALL send0
                      01225     
                      01226     
MPASM 5.87                           RGB.ASM   2-1-2024  8:48:44         PAGE 25


LOC  OBJECT CODE     LINE SOURCE TEXT
  VALUE

000B04 EC?? F???      01227     CALL send0
000B08 EC?? F???      01228     CALL send0
000B0C EC?? F???      01229     CALL send0
000B10 EC?? F???      01230     CALL send0
000B14 EC?? F???      01231     CALL send0
000B18 EC?? F???      01232     CALL send0
000B1C EC?? F???      01233     CALL send0
000B20 EC?? F???      01234     CALL send0
                      01235     
000B24 EC?? F???      01236     CALL send0
000B28 EC?? F???      01237     CALL send0
000B2C EC?? F???      01238     CALL send0
000B30 EC?? F???      01239     CALL send1
000B34 EC?? F???      01240     CALL send0
000B38 EC?? F???      01241     CALL send0
000B3C EC?? F???      01242     CALL send0
000B40 EC?? F???      01243     CALL send0
                      01244     
000B44 0012           01245     RETURN   
                      01246     
000B46                01247 color_blue_5:
                      01248     ; 8 bits à 1 pour le rouge (intensité faible), suivi de 16 bits à 0 pour le vert et le bleu
                      01249     
                      01250     
000B46 EC?? F???      01251     CALL send0
000B4A EC?? F???      01252     CALL send0
000B4E EC?? F???      01253     CALL send0
000B52 EC?? F???      01254     CALL send0
000B56 EC?? F???      01255     CALL send0
000B5A EC?? F???      01256     CALL send0
000B5E EC?? F???      01257     CALL send0
000B62 EC?? F???      01258     CALL send0
                      01259    
                      01260     
000B66 EC?? F???      01261     CALL send0
000B6A EC?? F???      01262     CALL send0
000B6E EC?? F???      01263     CALL send0
000B72 EC?? F???      01264     CALL send0
000B76 EC?? F???      01265     CALL send0
000B7A EC?? F???      01266     CALL send0
000B7E EC?? F???      01267     CALL send0
000B82 EC?? F???      01268     CALL send0
                      01269     
000B86 EC?? F???      01270     CALL send0
000B8A EC?? F???      01271     CALL send0
000B8E EC?? F???      01272     CALL send0
000B92 EC?? F???      01273     CALL send0
000B96 EC?? F???      01274     CALL send1
000B9A EC?? F???      01275     CALL send0
000B9E EC?? F???      01276     CALL send0
000BA2 EC?? F???      01277     CALL send0
                      01278     
000BA6 0012           01279     RETURN    
MPASM 5.87                           RGB.ASM   2-1-2024  8:48:44         PAGE 26


LOC  OBJECT CODE     LINE SOURCE TEXT
  VALUE

                      01280     
000BA8                01281 color_blue_6:
                      01282     ; 8 bits à 1 pour le rouge (intensité faible), suivi de 16 bits à 0 pour le vert et le bleu
                      01283     
                      01284     
000BA8 EC?? F???      01285     CALL send0
000BAC EC?? F???      01286     CALL send0
000BB0 EC?? F???      01287     CALL send0
000BB4 EC?? F???      01288     CALL send0
000BB8 EC?? F???      01289     CALL send0
000BBC EC?? F???      01290     CALL send0
000BC0 EC?? F???      01291     CALL send0
000BC4 EC?? F???      01292     CALL send0
                      01293     
                      01294 
                      01295     
000BC8 EC?? F???      01296     CALL send0
000BCC EC?? F???      01297     CALL send0
000BD0 EC?? F???      01298     CALL send0
000BD4 EC?? F???      01299     CALL send0
000BD8 EC?? F???      01300     CALL send0
000BDC EC?? F???      01301     CALL send0
000BE0 EC?? F???      01302     CALL send0
000BE4 EC?? F???      01303     CALL send0
                      01304     
000BE8 EC?? F???      01305     CALL send0
000BEC EC?? F???      01306     CALL send0
000BF0 EC?? F???      01307     CALL send0
000BF4 EC?? F???      01308     CALL send0
000BF8 EC?? F???      01309     CALL send0
000BFC EC?? F???      01310     CALL send1
000C00 EC?? F???      01311     CALL send1
000C04 EC?? F???      01312     CALL send1
                      01313     
000C08 0012           01314     RETURN    
                      01315     
000C0A                01316 color_blue_7:
                      01317     ; 8 bits à 1 pour le rouge (intensité faible), suivi de 16 bits à 0 pour le vert et le bleu
                      01318     
                      01319     
000C0A EC?? F???      01320     CALL send0
000C0E EC?? F???      01321     CALL send0
000C12 EC?? F???      01322     CALL send0
000C16 EC?? F???      01323     CALL send0
000C1A EC?? F???      01324     CALL send0
000C1E EC?? F???      01325     CALL send0
000C22 EC?? F???      01326     CALL send0
000C26 EC?? F???      01327     CALL send0
                      01328     
                      01329     
000C2A EC?? F???      01330     CALL send0
000C2E EC?? F???      01331     CALL send0
000C32 EC?? F???      01332     CALL send0
MPASM 5.87                           RGB.ASM   2-1-2024  8:48:44         PAGE 27


LOC  OBJECT CODE     LINE SOURCE TEXT
  VALUE

000C36 EC?? F???      01333     CALL send0
000C3A EC?? F???      01334     CALL send0
000C3E EC?? F???      01335     CALL send0
000C42 EC?? F???      01336     CALL send0
000C46 EC?? F???      01337     CALL send0
                      01338     
                      01339     
000C4A EC?? F???      01340     CALL send0
000C4E EC?? F???      01341     CALL send0
000C52 EC?? F???      01342     CALL send0
000C56 EC?? F???      01343     CALL send0
000C5A EC?? F???      01344     CALL send0
000C5E EC?? F???      01345     CALL send1
000C62 EC?? F???      01346     CALL send0
000C66 EC?? F???      01347     CALL send1
                      01348     
000C6A 0012           01349     RETURN   
                      01350     
000C6C                01351 color_blue_8:
                      01352     ; 8 bits à 1 pour le rouge (intensité faible), suivi de 16 bits à 0 pour le vert et le bleu
                      01353     
                      01354     
000C6C EC?? F???      01355     CALL send0
000C70 EC?? F???      01356     CALL send0
000C74 EC?? F???      01357     CALL send0
000C78 EC?? F???      01358     CALL send0
000C7C EC?? F???      01359     CALL send0
000C80 EC?? F???      01360     CALL send0
000C84 EC?? F???      01361     CALL send0
000C88 EC?? F???      01362     CALL send0
                      01363    
                      01364     
000C8C EC?? F???      01365     CALL send0
000C90 EC?? F???      01366     CALL send0
000C94 EC?? F???      01367     CALL send0
000C98 EC?? F???      01368     CALL send0
000C9C EC?? F???      01369     CALL send0
000CA0 EC?? F???      01370     CALL send0
000CA4 EC?? F???      01371     CALL send0
000CA8 EC?? F???      01372     CALL send0
                      01373     
000CAC EC?? F???      01374     CALL send0
000CB0 EC?? F???      01375     CALL send0
000CB4 EC?? F???      01376     CALL send0
000CB8 EC?? F???      01377     CALL send0
000CBC EC?? F???      01378     CALL send0
000CC0 EC?? F???      01379     CALL send0
000CC4 EC?? F???      01380     CALL send1
000CC8 EC?? F???      01381     CALL send1
                      01382     
000CCC 0012           01383     RETURN 
                      01384     
                      01385 ; ********************** FONCTIONS **********************
MPASM 5.87                           RGB.ASM   2-1-2024  8:48:44         PAGE 28


LOC  OBJECT CODE     LINE SOURCE TEXT
  VALUE

                      01386     
000CCE                01387 LED_0
000CCE 0E01           01388     MOVLW b'00000001'
000CD0 6E83           01389     MOVWF LATA
000CD2 0E3D           01390     MOVLW d'61' 
000CD4 6EBC           01391     MOVWF T2PR ; fixe la période de PWM (voir formule p.271)
000CD6 0012           01392     RETURN
                      01393     
000CD8                01394 LED_1
000CD8 0E03           01395     MOVLW b'00000011'
000CDA 6E83           01396     MOVWF LATA
                      01397 ;    MOVLW d'71' 
                      01398 ;    MOVWF T2PR ; fixe la période de PWM (voir formule p.271)
000CDC 0012           01399     RETURN
                      01400     
000CDE                01401 LED_2
000CDE 0E07           01402     MOVLW b'00000111'
000CE0 6E83           01403     MOVWF LATA
                      01404 ;    MOVLW d'81' 
                      01405 ;    MOVWF T2PR ; fixe la période de PWM (voir formule p.271)
000CE2 0012           01406     RETURN
                      01407     
000CE4                01408 LED_3
000CE4 0E0F           01409     MOVLW b'00001111'
000CE6 6E83           01410     MOVWF LATA
                      01411 ;    MOVLW d'91' 
                      01412 ;    MOVWF T2PR ; fixe la période de PWM (voir formule p.271)
000CE8 0012           01413     RETURN
                      01414     
000CEA                01415 LED_4
000CEA 0E10           01416     MOVLW b'00010000'
000CEC 6E84           01417     MOVWF LATB
                      01418 ;    MOVLW d'101' 
                      01419 ;    MOVWF T2PR ; fixe la période de PWM (voir formule p.271)
000CEE 0012           01420     RETURN
                      01421     
000CF0                01422 LED_5
000CF0 0E30           01423     MOVLW b'00110000'
000CF2 6E84           01424     MOVWF LATB
000CF4 0E6F           01425     MOVLW d'111' 
000CF6 6EBC           01426     MOVWF T2PR ; fixe la période de PWM (voir formule p.271)
000CF8 0012           01427     RETURN
                      01428     
000CFA                01429 LED_6
000CFA 0E70           01430     MOVLW b'01110000'
000CFC 6E84           01431     MOVWF LATB
                      01432 ;    MOVLW d'121' 
                      01433 ;    MOVWF T2PR ; fixe la période de PWM (voir formule p.271)
000CFE 0012           01434     RETURN
                      01435     
000D00                01436 LED_7
000D00 0EF0           01437     MOVLW b'11110000'
000D02 6E84           01438     MOVWF LATB
MPASM 5.87                           RGB.ASM   2-1-2024  8:48:44         PAGE 29


LOC  OBJECT CODE     LINE SOURCE TEXT
  VALUE

                      01439 ;    MOVLW d'131' 
                      01440 ;    MOVWF T2PR ; fixe la période de PWM (voir formule p.271)
000D04 0012           01441     RETURN
                      01442     
000D06                01443 LED_RESET
000D06 6A83           01444     CLRF LATA
000D08 6A84           01445     CLRF LATB
                      01446 ;    MOVLW d'61' 
                      01447 ;    MOVWF T2PR ; fixe la période de PWM (voir formule p.271)
000D0A 0012           01448     RETURN
                      01449     
                      01450 
                      01451     
                      01452     END
MPASM 5.87                           RGB.ASM   2-1-2024  8:48:44         PAGE 30


SYMBOL TABLE
  LABEL                             VALUE 

A                                 00000000
ABDEN                             00000000
ABDOVF                            00000007
ACC0                              00000000
ACC1                              00000001
ACC10                             00000002
ACC11                             00000003
ACC12                             00000004
ACC13                             00000005
ACC14                             00000006
ACC15                             00000007
ACC2                              00000002
ACC3                              00000003
ACC4                              00000004
ACC5                              00000005
ACC6                              00000006
ACC7                              00000007
ACC8                              00000000
ACC9                              00000001
ACCESS                            00000000
ACCM                              00000004
ACKDT                             00000005
ACKEN                             00000004
ACKSTAT                           00000006
ACKTIM                            00000007
ADACC                             00000F70
ADACC0                            00000000
ADACC1                            00000001
ADACC10                           00000002
ADACC11                           00000003
ADACC12                           00000004
ADACC13                           00000005
ADACC14                           00000006
ADACC15                           00000007
ADACC2                            00000002
ADACC3                            00000003
ADACC4                            00000004
ADACC5                            00000005
ADACC6                            00000006
ADACC7                            00000007
ADACC8                            00000000
ADACC9                            00000001
ADACCH                            00000F71
ADACCL                            00000F70
ADACLR                            00000003
ADACQ                             00000F5C
ADACQ0                            00000000
ADACQ1                            00000001
ADACQ2                            00000002
ADACQ3                            00000003
ADACQ4                            00000004
ADACQ5                            00000005
ADACQ6                            00000006
MPASM 5.87                           RGB.ASM   2-1-2024  8:48:44         PAGE 31


SYMBOL TABLE
  LABEL                             VALUE 

ADACQ7                            00000007
ADACT                             00000F56
ADACT0                            00000000
ADACT1                            00000001
ADACT2                            00000002
ADACT3                            00000003
ADACT4                            00000004
ADACTPPS                          00000EAE
ADACTPPS0                         00000000
ADACTPPS1                         00000001
ADACTPPS2                         00000002
ADACTPPS3                         00000003
ADACTPPS4                         00000004
ADAOV                             00000007
ADCALC0                           00000004
ADCALC1                           00000005
ADCALC2                           00000006
ADCAP                             00000F5D
ADCAP0                            00000000
ADCAP1                            00000001
ADCAP2                            00000002
ADCAP3                            00000003
ADCAP4                            00000004
ADCLK                             00000F57
ADCMD                             00000005
ADCNT                             00000F67
ADCNT0                            00000000
ADCNT1                            00000001
ADCNT2                            00000002
ADCNT3                            00000003
ADCNT4                            00000004
ADCNT5                            00000005
ADCNT6                            00000006
ADCNT7                            00000007
ADCON0                            00000F60
ADCON1                            00000F59
ADCON2                            00000F5A
ADCON3                            00000F5B
ADCONT                            00000006
ADCRS0                            00000004
ADCRS1                            00000005
ADCRS2                            00000006
ADCS                              00000004
ADCS0                             00000000
ADCS1                             00000001
ADCS2                             00000002
ADCS3                             00000003
ADCS4                             00000004
ADCS5                             00000005
ADDEN                             00000003
ADDSEN                            00000000
ADERR                             00000F6E
ADERR0                            00000000
MPASM 5.87                           RGB.ASM   2-1-2024  8:48:44         PAGE 32


SYMBOL TABLE
  LABEL                             VALUE 

ADERR1                            00000001
ADERR10                           00000002
ADERR11                           00000003
ADERR12                           00000004
ADERR13                           00000005
ADERR14                           00000006
ADERR15                           00000007
ADERR2                            00000002
ADERR3                            00000003
ADERR4                            00000004
ADERR5                            00000005
ADERR6                            00000006
ADERR7                            00000007
ADERR8                            00000000
ADERR9                            00000001
ADERRH                            00000F6F
ADERRL                            00000F6E
ADFLTR                            00000F72
ADFLTR0                           00000000
ADFLTR1                           00000001
ADFLTR10                          00000002
ADFLTR11                          00000003
ADFLTR12                          00000004
ADFLTR13                          00000005
ADFLTR14                          00000006
ADFLTR15                          00000007
ADFLTR2                           00000002
ADFLTR3                           00000003
ADFLTR4                           00000004
ADFLTR5                           00000005
ADFLTR6                           00000006
ADFLTR7                           00000007
ADFLTR8                           00000000
ADFLTR9                           00000001
ADFLTRH                           00000F73
ADFLTRL                           00000F72
ADFM                              00000002
ADFM0                             00000002
ADFVR0                            00000000
ADFVR1                            00000001
ADGO                              00000000
ADGPOL                            00000005
ADIE                              00000000
ADIF                              00000000
ADIP                              00000000
ADIPEN                            00000006
ADLTH                             00000F6A
ADLTH0                            00000000
ADLTH1                            00000001
ADLTH10                           00000002
ADLTH11                           00000003
ADLTH12                           00000004
ADLTH13                           00000005
MPASM 5.87                           RGB.ASM   2-1-2024  8:48:44         PAGE 33


SYMBOL TABLE
  LABEL                             VALUE 

ADLTH14                           00000006
ADLTH15                           00000007
ADLTH2                            00000002
ADLTH3                            00000003
ADLTH4                            00000004
ADLTH5                            00000005
ADLTH6                            00000006
ADLTH7                            00000007
ADLTH8                            00000000
ADLTH9                            00000001
ADLTHH                            00000F6B
ADLTHL                            00000F6A
ADLTHR                            00000005
ADMATH                            00000004
ADMD0                             00000000
ADMD1                             00000001
ADMD2                             00000002
ADMSK1                            00000001
ADMSK2                            00000002
ADMSK3                            00000003
ADMSK4                            00000004
ADMSK5                            00000005
ADNREF                            00000004
ADOEN                             00000002
ADON                              00000007
ADOR                              00000002
ADPCH                             00000F5F
ADPCH0                            00000000
ADPCH1                            00000001
ADPCH2                            00000002
ADPCH3                            00000003
ADPCH4                            00000004
ADPCH5                            00000005
ADPPOL                            00000007
ADPRE                             00000F5E
ADPRE0                            00000000
ADPRE1                            00000001
ADPRE2                            00000002
ADPRE3                            00000003
ADPRE4                            00000004
ADPRE5                            00000005
ADPRE6                            00000006
ADPRE7                            00000007
ADPREF0                           00000000
ADPREF1                           00000001
ADPREV                            00000F61
ADPREV0                           00000000
ADPREV1                           00000001
ADPREV10                          00000002
ADPREV11                          00000003
ADPREV12                          00000004
ADPREV13                          00000005
ADPREV14                          00000006
MPASM 5.87                           RGB.ASM   2-1-2024  8:48:44         PAGE 34


SYMBOL TABLE
  LABEL                             VALUE 

ADPREV15                          00000007
ADPREV2                           00000002
ADPREV3                           00000003
ADPREV4                           00000004
ADPREV5                           00000005
ADPREV6                           00000006
ADPREV7                           00000007
ADPREV8                           00000000
ADPREV9                           00000001
ADPREVH                           00000F62
ADPREVL                           00000F61
ADPSIS                            00000007
ADR0                              00000000
ADR1                              00000001
ADR2                              00000002
ADR3                              00000003
ADR4                              00000004
ADR5                              00000005
ADR6                              00000006
ADR7                              00000007
ADREF                             00000F58
ADRES                             00000F63
ADRES0                            00000000
ADRES1                            00000001
ADRES10                           00000002
ADRES11                           00000003
ADRES12                           00000004
ADRES13                           00000005
ADRES14                           00000006
ADRES15                           00000007
ADRES2                            00000002
ADRES3                            00000003
ADRES4                            00000004
ADRES5                            00000005
ADRES6                            00000006
ADRES7                            00000007
ADRES8                            00000000
ADRES9                            00000001
ADRESH                            00000F64
ADRESL                            00000F63
ADRPT                             00000F66
ADRPT0                            00000000
ADRPT1                            00000001
ADRPT2                            00000002
ADRPT3                            00000003
ADRPT4                            00000004
ADRPT5                            00000005
ADRPT6                            00000006
ADRPT7                            00000007
ADSOI                             00000003
ADSTAT                            00000F65
ADSTAT0                           00000000
ADSTAT1                           00000001
MPASM 5.87                           RGB.ASM   2-1-2024  8:48:44         PAGE 35


SYMBOL TABLE
  LABEL                             VALUE 

ADSTAT2                           00000002
ADSTPT                            00000F68
ADSTPT0                           00000000
ADSTPT1                           00000001
ADSTPT10                          00000002
ADSTPT11                          00000003
ADSTPT12                          00000004
ADSTPT13                          00000005
ADSTPT14                          00000006
ADSTPT15                          00000007
ADSTPT2                           00000002
ADSTPT3                           00000003
ADSTPT4                           00000004
ADSTPT5                           00000005
ADSTPT6                           00000006
ADSTPT7                           00000007
ADSTPT8                           00000000
ADSTPT9                           00000001
ADSTPTH                           00000F69
ADSTPTL                           00000F68
ADTIE                             00000001
ADTIF                             00000001
ADTIP                             00000001
ADTMD0                            00000000
ADTMD1                            00000001
ADTMD2                            00000002
ADUTH                             00000F6C
ADUTH0                            00000000
ADUTH1                            00000001
ADUTH10                           00000002
ADUTH11                           00000003
ADUTH12                           00000004
ADUTH13                           00000005
ADUTH14                           00000006
ADUTH15                           00000007
ADUTH2                            00000002
ADUTH3                            00000003
ADUTH4                            00000004
ADUTH5                            00000005
ADUTH6                            00000006
ADUTH7                            00000007
ADUTH8                            00000000
ADUTH9                            00000001
ADUTHH                            00000F6D
ADUTHL                            00000F6C
ADUTHR                            00000006
AHEN                              00000001
ANSELA                            00000F11
ANSELA0                           00000000
ANSELA1                           00000001
ANSELA2                           00000002
ANSELA3                           00000003
ANSELA4                           00000004
MPASM 5.87                           RGB.ASM   2-1-2024  8:48:44         PAGE 36


SYMBOL TABLE
  LABEL                             VALUE 

ANSELA5                           00000005
ANSELA6                           00000006
ANSELA7                           00000007
ANSELB                            00000F19
ANSELB0                           00000000
ANSELB1                           00000001
ANSELB2                           00000002
ANSELB3                           00000003
ANSELB4                           00000004
ANSELB5                           00000005
ANSELB6                           00000006
ANSELB7                           00000007
ANSELC                            00000F21
ANSELC0                           00000000
ANSELC1                           00000001
ANSELC2                           00000002
ANSELC3                           00000003
ANSELC4                           00000004
ANSELC5                           00000005
ANSELC6                           00000006
ANSELC7                           00000007
AS0E                              00000000
AS1E                              00000001
AS2E                              00000002
AS3E                              00000003
AS4E                              00000004
AS5E                              00000005
Animation1                        0000008E
BANKED                            00000001
BAUD1CON                          00000F9F
BAUDCON                           00000F9F
BAUDCON1                          00000F9F
BAUDCTL                           00000F9F
BAUDCTL1                          00000F9F
BCL1IE                            00000001
BCL1IF                            00000001
BCL1IP                            00000001
BCLIE                             00000001
BCLIF                             00000001
BCLIP                             00000001
BEGIN                             00000000
BF                                00000000
BIT                               00000000
BOEN                              00000004
BOR                               00000000
BORCON                            00000EE0
BORRDY                            00000000
BOUCLE                            00000070
BRG16                             00000003
BRGH                              00000002
BSR                               00000FE0
BUSY                              00000005
C                                 00000000
MPASM 5.87                           RGB.ASM   2-1-2024  8:48:44         PAGE 37


SYMBOL TABLE
  LABEL                             VALUE 

C1EN                              00000007
C1HYS                             00000001
C1IE                              00000000
C1IF                              00000000
C1INTN                            00000000
C1INTP                            00000001
C1IP                              00000000
C1NCH0                            00000000
C1NCH1                            00000001
C1NCH2                            00000002
C1OUT                             00000006
C1PCH0                            00000000
C1PCH1                            00000001
C1PCH2                            00000002
C1POL                             00000004
C1SYNC                            00000000
C1TSEL0                           00000000
C1TSEL1                           00000001
C2EN                              00000007
C2HYS                             00000001
C2IE                              00000001
C2IF                              00000001
C2INTN                            00000000
C2INTP                            00000001
C2IP                              00000001
C2NCH0                            00000000
C2NCH1                            00000001
C2NCH2                            00000002
C2OUT                             00000006
C2PCH0                            00000000
C2PCH1                            00000001
C2PCH2                            00000002
C2POL                             00000004
C2SYNC                            00000000
C2TSEL0                           00000002
C2TSEL1                           00000003
CCP1CAP                           00000FAD
CCP1CON                           00000FAC
CCP1CTS0                          00000000
CCP1CTS1                          00000001
CCP1EN                            00000007
CCP1FMT                           00000004
CCP1IE                            00000000
CCP1IF                            00000000
CCP1IP                            00000000
CCP1MD                            00000000
CCP1MODE0                         00000000
CCP1MODE1                         00000001
CCP1MODE2                         00000002
CCP1MODE3                         00000003
CCP1OUT                           00000005
CCP1PPS                           00000EAF
CCP1PPS0                          00000000
MPASM 5.87                           RGB.ASM   2-1-2024  8:48:44         PAGE 38


SYMBOL TABLE
  LABEL                             VALUE 

CCP1PPS1                          00000001
CCP1PPS2                          00000002
CCP1PPS3                          00000003
CCP1PPS4                          00000004
CCP2CAP                           00000FA9
CCP2CON                           00000FA8
CCP2CTS0                          00000000
CCP2CTS1                          00000001
CCP2EN                            00000007
CCP2FMT                           00000004
CCP2IE                            00000001
CCP2IF                            00000001
CCP2IP                            00000001
CCP2MD                            00000001
CCP2MODE0                         00000000
CCP2MODE1                         00000001
CCP2MODE2                         00000002
CCP2MODE3                         00000003
CCP2OUT                           00000005
CCP2PPS                           00000EB0
CCP2PPS0                          00000000
CCP2PPS1                          00000001
CCP2PPS2                          00000002
CCP2PPS3                          00000003
CCP2PPS4                          00000004
CCPR1                             00000FAA
CCPR1H                            00000FAB
CCPR1L                            00000FAA
CCPR2                             00000FA6
CCPR2H                            00000FA7
CCPR2L                            00000FA6
CCPTMRS                           00000FAE
CDAFVR0                           00000002
CDAFVR1                           00000003
CDIV0                             00000000
CDIV1                             00000001
CDIV2                             00000002
CDIV3                             00000003
CHPOL                             00000005
CHS0                              00000000
CHS1                              00000001
CHS2                              00000002
CHSYNC                            00000004
CK1PPS                            00000EB6
CKE                               00000006
CKP                               00000004
CKPOL                             00000006
CKPPS                             00000EB6
CKPS0                             00000004
CKPS1                             00000005
CKPS2                             00000006
CKSYNC                            00000005
CLK0                              00000000
MPASM 5.87                           RGB.ASM   2-1-2024  8:48:44         PAGE 39


SYMBOL TABLE
  LABEL                             VALUE 

CLK1                              00000001
CLK2                              00000002
CLKRCLK                           00000F3F
CLKRCLK0                          00000000
CLKRCLK1                          00000001
CLKRCLK2                          00000002
CLKRCON                           00000F3E
CLKRDC0                           00000003
CLKRDC1                           00000004
CLKRDIV0                          00000000
CLKRDIV1                          00000001
CLKRDIV2                          00000002
CLKREN                            00000007
CLKRMD                            00000001
CLPOL                             00000001
CLS0                              00000000
CLS1                              00000001
CLS2                              00000002
CLSYNC                            00000000
CM1CON0                           00000F39
CM1CON1                           00000F3A
CM1NCH                            00000F3B
CM1PCH                            00000F3C
CM2CON0                           00000F35
CM2CON1                           00000F36
CM2NCH                            00000F37
CM2PCH                            00000F38
CMOUT                             00000F3D
CMP1MD                            00000001
CMP2MD                            00000002
COSC0                             00000004
COSC1                             00000005
COSC2                             00000006
CPUDOZE                           00000ED7
CRCACC                            00000F76
CRCACCH                           00000F77
CRCACCL                           00000F76
CRCCON0                           00000F7C
CRCCON1                           00000F7D
CRCDATA                           00000F74
CRCDATH                           00000F75
CRCDATL                           00000F74
CRCEN                             00000007
CRCGO                             00000006
CRCIE                             00000006
CRCIF                             00000006
CRCIP                             00000006
CRCMD                             00000004
CRCSHFT                           00000F78
CRCSHIFTH                         00000F79
CRCSHIFTL                         00000F78
CRCXOR                            00000F7A
CRCXORH                           00000F7B
MPASM 5.87                           RGB.ASM   2-1-2024  8:48:44         PAGE 40


SYMBOL TABLE
  LABEL                             VALUE 

CRCXORL                           00000F7A
CREN                              00000004
CS                                00000000
CS0                               00000000
CS1                               00000001
CS2                               00000002
CS3                               00000003
CSRC                              00000007
CSWHOLD                           00000007
CSWIE                             00000006
CSWIF                             00000006
CSWIP                             00000006
CTS0                              00000000
CTS1                              00000001
CWG1AS0                           00000F46
CWG1AS1                           00000F47
CWG1CLK                           00000F40
CWG1CLKCON                        00000F40
CWG1CON0                          00000F44
CWG1CON1                          00000F45
CWG1CS                            00000000
CWG1DBF                           00000F43
CWG1DBF0                          00000000
CWG1DBF1                          00000001
CWG1DBF2                          00000002
CWG1DBF3                          00000003
CWG1DBF4                          00000004
CWG1DBF5                          00000005
CWG1DBR                           00000F42
CWG1DBR0                          00000000
CWG1DBR1                          00000001
CWG1DBR2                          00000002
CWG1DBR3                          00000003
CWG1DBR4                          00000004
CWG1DBR5                          00000005
CWG1EN                            00000007
CWG1IE                            00000000
CWG1IF                            00000000
CWG1IN                            00000005
CWG1INPPS0                        00000000
CWG1INPPS1                        00000001
CWG1INPPS2                        00000002
CWG1INPPS3                        00000003
CWG1INPPS4                        00000004
CWG1IP                            00000000
CWG1ISM                           00000F41
CWG1ISM0                          00000000
CWG1ISM1                          00000001
CWG1ISM2                          00000002
CWG1ISM3                          00000003
CWG1LD                            00000006
CWG1LSAC0                         00000002
CWG1LSAC1                         00000003
MPASM 5.87                           RGB.ASM   2-1-2024  8:48:44         PAGE 41


SYMBOL TABLE
  LABEL                             VALUE 

CWG1LSBD0                         00000004
CWG1LSBD1                         00000005
CWG1MD                            00000000
CWG1MODE0                         00000000
CWG1MODE1                         00000001
CWG1MODE2                         00000002
CWG1OVRA                          00000004
CWG1OVRB                          00000005
CWG1OVRC                          00000006
CWG1OVRD                          00000007
CWG1POLA                          00000000
CWG1POLB                          00000001
CWG1POLC                          00000002
CWG1POLD                          00000003
CWG1PPS                           00000EB1
CWG1REN                           00000006
CWG1SHUTDOWN                      00000007
CWG1STR                           00000F48
CWG1STRA                          00000000
CWG1STRB                          00000001
CWG1STRC                          00000002
CWG1STRD                          00000003
CWGIE                             00000000
CWGIF                             00000000
CWGINPPS                          00000EB1
CWGINPPS0                         00000000
CWGINPPS1                         00000001
CWGINPPS2                         00000002
CWGINPPS3                         00000003
CWGINPPS4                         00000004
CWGIP                             00000000
CWGMD                             00000000
DABORT                            00000004
DAC1CON0                          00000F33
DAC1CON1                          00000F34
DAC1EN                            00000007
DAC1NSS                           00000000
DAC1OE1                           00000005
DAC1OE2                           00000004
DAC1PSS0                          00000002
DAC1PSS1                          00000003
DAC1R0                            00000000
DAC1R1                            00000001
DAC1R2                            00000002
DAC1R3                            00000003
DAC1R4                            00000004
DACMD                             00000006
DATA0                             00000000
DATA1                             00000001
DATA10                            00000002
DATA11                            00000003
DATA12                            00000004
DATA13                            00000005
MPASM 5.87                           RGB.ASM   2-1-2024  8:48:44         PAGE 42


SYMBOL TABLE
  LABEL                             VALUE 

DATA14                            00000006
DATA15                            00000007
DATA2                             00000002
DATA3                             00000003
DATA4                             00000004
DATA5                             00000005
DATA6                             00000006
DATA7                             00000007
DATA8                             00000000
DATA9                             00000001
DATA_ADDRESS                      00000005
DBF0                              00000000
DBF1                              00000001
DBF2                              00000002
DBF3                              00000003
DBF4                              00000004
DBF5                              00000005
DBR0                              00000000
DBR1                              00000001
DBR2                              00000002
DBR3                              00000003
DBR4                              00000004
DBR5                              00000005
DC                                00000001
DC0_CLKRCON                       00000003
DC0_PWM3DCL                       00000006
DC0_PWM4DCL                       00000006
DC1_CLKRCON                       00000004
DC1_PWM3DCL                       00000007
DC1_PWM4DCL                       00000007
DC2                               00000000
DC3                               00000001
DC4                               00000002
DC5                               00000003
DC6                               00000004
DC7                               00000005
DC8                               00000006
DC9                               00000007
DDRA                              TRISA
DDRB                              TRISB
DDRC                              TRISC
DDRD                              TRISD
DDRE                              TRISE
DHEN                              00000000
DIV0                              00000000
DIV1                              00000001
DIV2                              00000002
DLEN0                             00000004
DLEN1                             00000005
DLEN2                             00000006
DLEN3                             00000007
DOE                               00000004
DONE                              00000000
MPASM 5.87                           RGB.ASM   2-1-2024  8:48:44         PAGE 43


SYMBOL TABLE
  LABEL                             VALUE 

DOZE0                             00000000
DOZE1                             00000001
DOZE2                             00000002
DOZEN                             00000006
DSMMD                             00000000
D_A                               00000005
D_NOT_A                           00000005
Delay160ms                        00000078
DelayInnerLoop                    00000080
DelayOuterLoop                    0000007C
EN                                00000007
EXTOEN                            00000007
EXTOR                             00000007
FAST                              00000001
FERR                              00000002
FMT                               00000004
FREE                              00000004
FRQ0                              00000000
FRQ1                              00000001
FRQ2                              00000002
FRQ3                              00000003
FSR0                              00000000
FSR0H                             00000FEA
FSR0L                             00000FE9
FSR1                              00000001
FSR1H                             00000FE2
FSR1L                             00000FE1
FSR2                              00000002
FSR2H                             00000FDA
FSR2L                             00000FD9
FULL                              00000000
FVRCON                            00000F31
FVREN                             00000007
FVRMD                             00000006
FVRRDY                            00000006
G1EN                              00000007
GCEN                              00000007
GE                                00000007
GGO_NOT_DONE                      00000003
GIE                               00000007
GIEH                              00000007
GIEL                              00000006
GIE_GIEH                          00000007
GO_ADCON0                         00000000
GO_NOT_DONE                       00000000
GO_SCANCON0                       00000006
GPOL                              00000006
GSPM                              00000004
GSS0                              00000000
GSS1                              00000001
GSS2                              00000002
GSS3                              00000003
GTM                               00000005
MPASM 5.87                           RGB.ASM   2-1-2024  8:48:44         PAGE 44


SYMBOL TABLE
  LABEL                             VALUE 

GVAL                              00000002
HADR0                             00000000
HADR1                             00000001
HADR10                            00000002
HADR11                            00000003
HADR12                            00000004
HADR13                            00000005
HADR14                            00000006
HADR15                            00000007
HADR16                            00000000
HADR17                            00000001
HADR18                            00000002
HADR19                            00000003
HADR2                             00000002
HADR20                            00000004
HADR21                            00000005
HADR3                             00000003
HADR4                             00000004
HADR5                             00000005
HADR6                             00000006
HADR7                             00000007
HADR8                             00000000
HADR9                             00000001
HFOEN                             00000006
HFOR                              00000006
HLVDCON0                          00000F2F
HLVDCON1                          00000F30
HLVDEN                            00000007
HLVDIE                            00000007
HLVDIF                            00000007
HLVDINTH                          00000001
HLVDINTL                          00000000
HLVDIP                            00000007
HLVDMD                            00000005
HLVDOUT                           00000005
HLVDRDY                           00000004
HLVDSEL0                          00000000
HLVDSEL1                          00000001
HLVDSEL2                          00000002
HLVDSEL3                          00000003
HYS                               00000001
I2C_DAT                           00000005
I2C_READ                          00000002
I2C_START                         00000003
I2C_STOP                          00000004
IDLEN                             00000007
IN                                00000005
INDF0                             00000FEF
INDF1                             00000FE7
INDF2                             00000FDF
INLVLA                            00000F0D
INLVLA0                           00000000
INLVLA1                           00000001
MPASM 5.87                           RGB.ASM   2-1-2024  8:48:44         PAGE 45


SYMBOL TABLE
  LABEL                             VALUE 

INLVLA2                           00000002
INLVLA3                           00000003
INLVLA4                           00000004
INLVLA5                           00000005
INLVLA6                           00000006
INLVLA7                           00000007
INLVLB                            00000F15
INLVLB0                           00000000
INLVLB1                           00000001
INLVLB2                           00000002
INLVLB3                           00000003
INLVLB4                           00000004
INLVLB5                           00000005
INLVLB6                           00000006
INLVLB7                           00000007
INLVLC                            00000F1D
INLVLC0                           00000000
INLVLC1                           00000001
INLVLC2                           00000002
INLVLC3                           00000003
INLVLC4                           00000004
INLVLC5                           00000005
INLVLC6                           00000006
INLVLC7                           00000007
INLVLE                            00000F2A
INLVLE3                           00000003
INT0EDG                           00000000
INT0IE                            00000000
INT0IF                            00000000
INT0IP                            00000000
INT0PPS                           00000EA1
INT0PPS0                          00000000
INT0PPS1                          00000001
INT0PPS2                          00000002
INT0PPS3                          00000003
INT1EDG                           00000001
INT1IE                            00000001
INT1IF                            00000001
INT1IP                            00000001
INT1PPS                           00000EA2
INT1PPS0                          00000000
INT1PPS1                          00000001
INT1PPS2                          00000002
INT1PPS3                          00000003
INT2EDG                           00000002
INT2IE                            00000002
INT2IF                            00000002
INT2IP                            00000002
INT2PPS                           00000EA3
INT2PPS0                          00000000
INT2PPS1                          00000001
INT2PPS2                          00000002
INT2PPS3                          00000003
MPASM 5.87                           RGB.ASM   2-1-2024  8:48:44         PAGE 46


SYMBOL TABLE
  LABEL                             VALUE 

INTCON                            00000FF2
INTH                              00000001
INTL                              00000000
INTM                              00000003
INTN                              00000000
INTP                              00000001
INVALID                           00000004
IOCAF                             00000F0A
IOCAF0                            00000000
IOCAF1                            00000001
IOCAF2                            00000002
IOCAF3                            00000003
IOCAF4                            00000004
IOCAF5                            00000005
IOCAF6                            00000006
IOCAF7                            00000007
IOCAN                             00000F0B
IOCAN0                            00000000
IOCAN1                            00000001
IOCAN2                            00000002
IOCAN3                            00000003
IOCAN4                            00000004
IOCAN5                            00000005
IOCAN6                            00000006
IOCAN7                            00000007
IOCAP                             00000F0C
IOCAP0                            00000000
IOCAP1                            00000001
IOCAP2                            00000002
IOCAP3                            00000003
IOCAP4                            00000004
IOCAP5                            00000005
IOCAP6                            00000006
IOCAP7                            00000007
IOCBF                             00000F12
IOCBF0                            00000000
IOCBF1                            00000001
IOCBF2                            00000002
IOCBF3                            00000003
IOCBF4                            00000004
IOCBF5                            00000005
IOCBF6                            00000006
IOCBF7                            00000007
IOCBN                             00000F13
IOCBN0                            00000000
IOCBN1                            00000001
IOCBN2                            00000002
IOCBN3                            00000003
IOCBN4                            00000004
IOCBN5                            00000005
IOCBN6                            00000006
IOCBN7                            00000007
IOCBP                             00000F14
MPASM 5.87                           RGB.ASM   2-1-2024  8:48:44         PAGE 47


SYMBOL TABLE
  LABEL                             VALUE 

IOCBP0                            00000000
IOCBP1                            00000001
IOCBP2                            00000002
IOCBP3                            00000003
IOCBP4                            00000004
IOCBP5                            00000005
IOCBP6                            00000006
IOCBP7                            00000007
IOCCF                             00000F1A
IOCCF0                            00000000
IOCCF1                            00000001
IOCCF2                            00000002
IOCCF3                            00000003
IOCCF4                            00000004
IOCCF5                            00000005
IOCCF6                            00000006
IOCCF7                            00000007
IOCCN                             00000F1B
IOCCN0                            00000000
IOCCN1                            00000001
IOCCN2                            00000002
IOCCN3                            00000003
IOCCN4                            00000004
IOCCN5                            00000005
IOCCN6                            00000006
IOCCN7                            00000007
IOCCP                             00000F1C
IOCCP0                            00000000
IOCCP1                            00000001
IOCCP2                            00000002
IOCCP3                            00000003
IOCCP4                            00000004
IOCCP5                            00000005
IOCCP6                            00000006
IOCCP7                            00000007
IOCEF                             00000F27
IOCEF3                            00000003
IOCEN                             00000F28
IOCEN3                            00000003
IOCEP                             00000F29
IOCEP3                            00000003
IOCIE                             00000004
IOCIF                             00000004
IOCIP                             00000004
IOCMD                             00000000
IPEN                              00000005
IPR0                              00000EBA
IPR1                              00000EBB
IPR2                              00000EBC
IPR3                              00000EBD
IPR4                              00000EBE
IPR5                              00000EBF
IPR6                              00000EC0
MPASM 5.87                           RGB.ASM   2-1-2024  8:48:44         PAGE 48


SYMBOL TABLE
  LABEL                             VALUE 

IPR7                              00000EC1
LADR0                             00000000
LADR1                             00000001
LADR10                            00000002
LADR11                            00000003
LADR12                            00000004
LADR13                            00000005
LADR14                            00000006
LADR15                            00000007
LADR16                            00000000
LADR17                            00000001
LADR18                            00000002
LADR19                            00000003
LADR2                             00000002
LADR20                            00000004
LADR21                            00000005
LADR3                             00000003
LADR4                             00000004
LADR5                             00000005
LADR6                             00000006
LADR7                             00000007
LADR8                             00000000
LADR9                             00000001
LATA                              00000F83
LATA0                             00000000
LATA1                             00000001
LATA2                             00000002
LATA3                             00000003
LATA4                             00000004
LATA5                             00000005
LATA6                             00000006
LATA7                             00000007
LATB                              00000F84
LATB0                             00000000
LATB1                             00000001
LATB2                             00000002
LATB3                             00000003
LATB4                             00000004
LATB5                             00000005
LATB6                             00000006
LATB7                             00000007
LATC                              00000F85
LATC0                             00000000
LATC1                             00000001
LATC2                             00000002
LATC3                             00000003
LATC4                             00000004
LATC5                             00000005
LATC6                             00000006
LATC7                             00000007
LD                                00000006
LED_0                             00000CCE
LED_1                             00000CD8
MPASM 5.87                           RGB.ASM   2-1-2024  8:48:44         PAGE 49


SYMBOL TABLE
  LABEL                             VALUE 

LED_2                             00000CDE
LED_3                             00000CE4
LED_4                             00000CEA
LED_5                             00000CF0
LED_6                             00000CFA
LED_7                             00000D00
LED_PIN                           00000000
LED_RESET                         00000D06
LFOEN                             00000004
LFOR                              00000004
LSAC0                             00000002
LSAC1                             00000003
LSBD0                             00000004
LSBD1                             00000005
MC1OUT                            00000000
MC2OUT                            00000001
MDBIT                             00000000
MDCARH                            00000F55
MDCARHPPS                         00000EB3
MDCARHPPS0                        00000000
MDCARHPPS1                        00000001
MDCARHPPS2                        00000002
MDCARHPPS3                        00000003
MDCARHPPS4                        00000004
MDCARL                            00000F54
MDCARLPPS                         00000EB2
MDCARLPPS0                        00000000
MDCARLPPS1                        00000001
MDCARLPPS2                        00000002
MDCARLPPS3                        00000003
MDCARLPPS4                        00000004
MDCHPOL                           00000005
MDCHS0                            00000000
MDCHS1                            00000001
MDCHS2                            00000002
MDCHSYNC                          00000004
MDCLPOL                           00000001
MDCLS0                            00000000
MDCLS1                            00000001
MDCLS2                            00000002
MDCLSYNC                          00000000
MDCON0                            00000F51
MDCON1                            00000F52
MDEN                              00000007
MDOPOL                            00000004
MDOUT                             00000005
MDSRC                             00000F53
MDSRCPPS                          00000EB4
MDSRCPPS0                         00000000
MDSRCPPS1                         00000001
MDSRCPPS2                         00000002
MDSRCPPS3                         00000003
MDSRCPPS4                         00000004
MPASM 5.87                           RGB.ASM   2-1-2024  8:48:44         PAGE 50


SYMBOL TABLE
  LABEL                             VALUE 

MDSRCS0                           00000000
MDSRCS1                           00000001
MDSRCS2                           00000002
MDSRCS3                           00000003
MFOEN                             00000005
MFOR                              00000005
MODE0                             00000000
MODE1                             00000001
MODE2                             00000002
MODE3                             00000003
MODE4                             00000004
MSK0                              00000000
MSK1                              00000001
MSK2                              00000002
MSK3                              00000003
MSK4                              00000004
MSK5                              00000005
MSK6                              00000006
MSK7                              00000007
MSSP1MD                           00000004
N                                 00000004
NB_LED                            00000000
NCH0                              00000000
NCH1                              00000001
NCH2                              00000002
NDIV0                             00000000
NDIV1                             00000001
NDIV2                             00000002
NDIV3                             00000003
NOSC0                             00000004
NOSC1                             00000005
NOSC2                             00000006
NOSCR                             00000003
NOT_A                             00000005
NOT_ADDRESS                       00000005
NOT_BOR                           00000000
NOT_PD                            00000005
NOT_POR                           00000001
NOT_RI                            00000002
NOT_RMCLR                         00000003
NOT_RWDT                          00000004
NOT_SYNC                          00000002
NOT_T1SYNC                        00000002
NOT_T3SYNC                        00000002
NOT_T5SYNC                        00000002
NOT_TO                            00000006
NOT_W                             00000002
NOT_WDTWV                         00000005
NOT_WRITE                         00000002
NSS                               00000000
NVMADR                            00000F7E
NVMADR0                           00000000
NVMADR1                           00000001
MPASM 5.87                           RGB.ASM   2-1-2024  8:48:44         PAGE 51


SYMBOL TABLE
  LABEL                             VALUE 

NVMADR2                           00000002
NVMADR3                           00000003
NVMADR4                           00000004
NVMADR5                           00000005
NVMADR6                           00000006
NVMADR7                           00000007
NVMADRL                           00000F7E
NVMCON1                           00000F81
NVMCON2                           00000F82
NVMDAT                            00000F80
NVMDAT0                           00000000
NVMDAT1                           00000001
NVMDAT2                           00000002
NVMDAT3                           00000003
NVMDAT4                           00000004
NVMDAT5                           00000005
NVMDAT6                           00000006
NVMDAT7                           00000007
NVMIE                             00000005
NVMIF                             00000005
NVMIP                             00000005
NVMMD                             00000002
NVMREG0                           00000006
NVMREG1                           00000007
ODCA0                             00000000
ODCA1                             00000001
ODCA2                             00000002
ODCA3                             00000003
ODCA4                             00000004
ODCA5                             00000005
ODCA6                             00000006
ODCA7                             00000007
ODCB0                             00000000
ODCB1                             00000001
ODCB2                             00000002
ODCB3                             00000003
ODCB4                             00000004
ODCB5                             00000005
ODCB6                             00000006
ODCB7                             00000007
ODCC0                             00000000
ODCC1                             00000001
ODCC2                             00000002
ODCC3                             00000003
ODCC4                             00000004
ODCC5                             00000005
ODCC6                             00000006
ODCC7                             00000007
ODCONA                            00000F0F
ODCONB                            00000F17
ODCONC                            00000F1F
OE1                               00000005
OE2                               00000004
MPASM 5.87                           RGB.ASM   2-1-2024  8:48:44         PAGE 52


SYMBOL TABLE
  LABEL                             VALUE 

OERR                              00000001
ON_T1CON                          00000000
ON_T2CON                          00000007
ON_T3CON                          00000000
ON_T4CON                          00000007
ON_T5CON                          00000000
ON_T6CON                          00000007
OPOL                              00000004
ORDY                              00000004
OSCCON1                           00000ED8
OSCCON2                           00000ED9
OSCCON3                           00000EDA
OSCEN                             00000EDC
OSCFIE                            00000007
OSCFIF                            00000007
OSCFIP                            00000007
OSCFRQ                            00000EDE
OSCSTAT                           00000EDB
OSCSTAT1                          00000EDB
OSCTUNE                           00000EDD
OUTPS0                            00000000
OUTPS1                            00000001
OUTPS2                            00000002
OUTPS3                            00000003
OUT_CCP1CON                       00000005
OUT_CCP2CON                       00000005
OUT_CM1CON0                       00000006
OUT_CM2CON0                       00000006
OUT_HLVDCON0                      00000005
OUT_MDCON0                        00000005
OUT_PWM3CON                       00000005
OUT_PWM4CON                       00000005
OUT_ZCDCON                        00000005
OV                                00000003
OVRA                              00000004
OVRB                              00000005
OVRC                              00000006
OVRD                              00000007
P                                 00000004
P3TSEL0                           00000004
P3TSEL1                           00000005
P4TSEL0                           00000006
P4TSEL1                           00000007
PC                                00000FF9
PCH0                              00000000
PCH1                              00000001
PCH2                              00000002
PCIE                              00000006
PCL                               00000FF9
PCLATH                            00000FFA
PCLATU                            00000FFB
PCON0                             00000FD7
PD                                00000005
MPASM 5.87                           RGB.ASM   2-1-2024  8:48:44         PAGE 53


SYMBOL TABLE
  LABEL                             VALUE 

PEIE                              00000006
PEIE_GIEL                         00000006
PEN                               00000002
PIE0                              00000EC2
PIE1                              00000EC3
PIE2                              00000EC4
PIE3                              00000EC5
PIE4                              00000EC6
PIE5                              00000EC7
PIE6                              00000EC8
PIE7                              00000EC9
PIR0                              00000ECA
PIR1                              00000ECB
PIR2                              00000ECC
PIR3                              00000ECD
PIR4                              00000ECE
PIR5                              00000ECF
PIR6                              00000ED0
PIR7                              00000ED1
PLEN0                             00000000
PLEN1                             00000001
PLEN2                             00000002
PLEN3                             00000003
PLLR                              00000000
PLUSW0                            00000FEB
PLUSW1                            00000FE3
PLUSW2                            00000FDB
PMD0                              00000EE1
PMD1                              00000EE2
PMD2                              00000EE3
PMD3                              00000EE4
PMD4                              00000EE5
PMD5                              00000EE6
POL                               00000004
POLA                              00000000
POLB                              00000001
POLC                              00000002
POLD                              00000003
POR                               00000001
PORT                              00000003
PORTA                             00000F8D
PORTB                             00000F8E
PORTC                             00000F8F
PORTE                             00000F91
POSTDEC0                          00000FED
POSTDEC1                          00000FE5
POSTDEC2                          00000FDD
POSTINC0                          00000FEE
POSTINC1                          00000FE6
POSTINC2                          00000FDE
PPSLOCK                           00000EA0
PPSLOCKED                         00000000
PR0                               00000FD4
MPASM 5.87                           RGB.ASM   2-1-2024  8:48:44         PAGE 54


SYMBOL TABLE
  LABEL                             VALUE 

PR1                               00000FD0
PR2                               00000FBC
PR3                               00000FCA
PR4                               00000FB6
PR5                               00000FC4
PR6                               00000FB0
PREINC0                           00000FEC
PREINC1                           00000FE4
PREINC2                           00000FDC
PROD                              00000FF3
PRODH                             00000FF4
PRODL                             00000FF3
PSCNT0                            00000000
PSCNT1                            00000001
PSCNT10                           00000002
PSCNT11                           00000003
PSCNT12                           00000004
PSCNT13                           00000005
PSCNT14                           00000006
PSCNT15                           00000007
PSCNT16                           00000000
PSCNT17                           00000001
PSCNT2                            00000002
PSCNT3                            00000003
PSCNT4                            00000004
PSCNT5                            00000005
PSCNT6                            00000006
PSCNT7                            00000007
PSCNT8                            00000000
PSCNT9                            00000001
PSS0                              00000002
PSS1                              00000003
PSYNC                             00000007
PWM3CON                           00000FA5
PWM3DC                            00000FA3
PWM3DC0                           00000006
PWM3DC1                           00000007
PWM3DC2                           00000000
PWM3DC3                           00000001
PWM3DC4                           00000002
PWM3DC5                           00000003
PWM3DC6                           00000004
PWM3DC7                           00000005
PWM3DC8                           00000006
PWM3DC9                           00000007
PWM3DCH                           00000FA4
PWM3DCL                           00000FA3
PWM3EN                            00000007
PWM3MD                            00000002
PWM3OUT                           00000005
PWM3POL                           00000004
PWM4CON                           00000FA2
PWM4DC                            00000FA0
MPASM 5.87                           RGB.ASM   2-1-2024  8:48:44         PAGE 55


SYMBOL TABLE
  LABEL                             VALUE 

PWM4DC0                           00000006
PWM4DC1                           00000007
PWM4DC2                           00000000
PWM4DC3                           00000001
PWM4DC4                           00000002
PWM4DC5                           00000003
PWM4DC6                           00000004
PWM4DC7                           00000005
PWM4DC8                           00000006
PWM4DC9                           00000007
PWM4DCH                           00000FA1
PWM4DCL                           00000FA0
PWM4EN                            00000007
PWM4MD                            00000003
PWM4OUT                           00000005
PWM4POL                           00000004
PWMPW0                            00000006
PWMPW1                            00000007
PWMPW2                            00000000
PWMPW3                            00000001
PWMPW4                            00000002
PWMPW5                            00000003
PWMPW6                            00000004
PWMPW7                            00000005
PWMPW8                            00000006
PWMPW9                            00000007
RA0                               00000000
RA0PPS                            00000EE7
RA0PPS0                           00000000
RA0PPS1                           00000001
RA0PPS2                           00000002
RA0PPS3                           00000003
RA0PPS4                           00000004
RA1                               00000001
RA1PPS                            00000EE8
RA1PPS0                           00000000
RA1PPS1                           00000001
RA1PPS2                           00000002
RA1PPS3                           00000003
RA1PPS4                           00000004
RA2                               00000002
RA2PPS                            00000EE9
RA2PPS0                           00000000
RA2PPS1                           00000001
RA2PPS2                           00000002
RA2PPS3                           00000003
RA2PPS4                           00000004
RA3                               00000003
RA3PPS                            00000EEA
RA3PPS0                           00000000
RA3PPS1                           00000001
RA3PPS2                           00000002
RA3PPS3                           00000003
MPASM 5.87                           RGB.ASM   2-1-2024  8:48:44         PAGE 56


SYMBOL TABLE
  LABEL                             VALUE 

RA3PPS4                           00000004
RA4                               00000004
RA4PPS                            00000EEB
RA4PPS0                           00000000
RA4PPS1                           00000001
RA4PPS2                           00000002
RA4PPS3                           00000003
RA4PPS4                           00000004
RA5                               00000005
RA5PPS                            00000EEC
RA5PPS0                           00000000
RA5PPS1                           00000001
RA5PPS2                           00000002
RA5PPS3                           00000003
RA5PPS4                           00000004
RA6                               00000006
RA6PPS                            00000EED
RA6PPS0                           00000000
RA6PPS1                           00000001
RA6PPS2                           00000002
RA6PPS3                           00000003
RA6PPS4                           00000004
RA7                               00000007
RA7PPS                            00000EEE
RA7PPS0                           00000000
RA7PPS1                           00000001
RA7PPS2                           00000002
RA7PPS3                           00000003
RA7PPS4                           00000004
RB0                               00000000
RB0PPS                            00000EEF
RB0PPS0                           00000000
RB0PPS1                           00000001
RB0PPS2                           00000002
RB0PPS3                           00000003
RB0PPS4                           00000004
RB1                               00000001
RB1PPS                            00000EF0
RB1PPS0                           00000000
RB1PPS1                           00000001
RB1PPS2                           00000002
RB1PPS3                           00000003
RB1PPS4                           00000004
RB2                               00000002
RB2PPS                            00000EF1
RB2PPS0                           00000000
RB2PPS1                           00000001
RB2PPS2                           00000002
RB2PPS3                           00000003
RB2PPS4                           00000004
RB3                               00000003
RB3PPS                            00000EF2
RB3PPS0                           00000000
MPASM 5.87                           RGB.ASM   2-1-2024  8:48:44         PAGE 57


SYMBOL TABLE
  LABEL                             VALUE 

RB3PPS1                           00000001
RB3PPS2                           00000002
RB3PPS3                           00000003
RB3PPS4                           00000004
RB4                               00000004
RB4PPS                            00000EF3
RB4PPS0                           00000000
RB4PPS1                           00000001
RB4PPS2                           00000002
RB4PPS3                           00000003
RB4PPS4                           00000004
RB5                               00000005
RB5PPS                            00000EF4
RB5PPS0                           00000000
RB5PPS1                           00000001
RB5PPS2                           00000002
RB5PPS3                           00000003
RB5PPS4                           00000004
RB6                               00000006
RB6PPS                            00000EF5
RB6PPS0                           00000000
RB6PPS1                           00000001
RB6PPS2                           00000002
RB6PPS3                           00000003
RB6PPS4                           00000004
RB7                               00000007
RB7PPS                            00000EF6
RB7PPS0                           00000000
RB7PPS1                           00000001
RB7PPS2                           00000002
RB7PPS3                           00000003
RB7PPS4                           00000004
RC0                               00000000
RC0PPS                            00000EF7
RC0PPS0                           00000000
RC0PPS1                           00000001
RC0PPS2                           00000002
RC0PPS3                           00000003
RC0PPS4                           00000004
RC1                               00000001
RC1IE                             00000005
RC1IF                             00000005
RC1PPS                            00000EF8
RC1PPS0                           00000000
RC1PPS1                           00000001
RC1PPS2                           00000002
RC1PPS3                           00000003
RC1PPS4                           00000004
RC1REG                            00000F99
RC1STA                            00000F9D
RC2                               00000002
RC2PPS                            00000EF9
RC2PPS0                           00000000
MPASM 5.87                           RGB.ASM   2-1-2024  8:48:44         PAGE 58


SYMBOL TABLE
  LABEL                             VALUE 

RC2PPS1                           00000001
RC2PPS2                           00000002
RC2PPS3                           00000003
RC2PPS4                           00000004
RC3                               00000003
RC3PPS                            00000EFA
RC3PPS0                           00000000
RC3PPS1                           00000001
RC3PPS2                           00000002
RC3PPS3                           00000003
RC3PPS4                           00000004
RC4                               00000004
RC4PPS                            00000EFB
RC4PPS0                           00000000
RC4PPS1                           00000001
RC4PPS2                           00000002
RC4PPS3                           00000003
RC4PPS4                           00000004
RC5                               00000005
RC5PPS                            00000EFC
RC5PPS0                           00000000
RC5PPS1                           00000001
RC5PPS2                           00000002
RC5PPS3                           00000003
RC5PPS4                           00000004
RC6                               00000006
RC6PPS                            00000EFD
RC6PPS0                           00000000
RC6PPS1                           00000001
RC6PPS2                           00000002
RC6PPS3                           00000003
RC6PPS4                           00000004
RC7                               00000007
RC7PPS                            00000EFE
RC7PPS0                           00000000
RC7PPS1                           00000001
RC7PPS2                           00000002
RC7PPS3                           00000003
RC7PPS4                           00000004
RCEN                              00000003
RCIDL                             00000006
RCIE                              00000005
RCIF                              00000005
RCIP                              00000005
RCREG                             00000F99
RCREG1                            00000F99
RCSTA                             00000F9D
RCSTA1                            00000F9D
RD                                00000000
RD16                              00000001
RDY_FVRCON                        00000006
RDY_HLVDCON0                      00000004
RE3                               00000003
MPASM 5.87                           RGB.ASM   2-1-2024  8:48:44         PAGE 59


SYMBOL TABLE
  LABEL                             VALUE 

READ_WRITE                        00000002
REN                               00000006
RESULTHI                          00000001
RESULTLO                          00000002
RI                                00000002
RMCLR                             00000003
ROI                               00000005
RSEL0                             00000000
RSEL1                             00000001
RSEL2                             00000002
RSEL3                             00000003
RSEN                              00000001
RWDT                              00000004
RX1PPS                            00000EB5
RX9                               00000006
RX9D                              00000000
RXPPS                             00000EB5
RXPPS0                            00000000
RXPPS1                            00000001
RXPPS2                            00000002
RXPPS3                            00000003
RXPPS4                            00000004
R_NOT_W                           00000002
R_W                               00000002
S                                 00000003
SBCDE                             00000002
SBOREN                            00000007
SCANBUSY                          00000005
SCANCON0                          00000F4F
SCANEN                            00000007
SCANGO                            00000006
SCANHADR                          00000F4C
SCANHADR0                         00000000
SCANHADR1                         00000001
SCANHADR10                        00000002
SCANHADR11                        00000003
SCANHADR12                        00000004
SCANHADR13                        00000005
SCANHADR14                        00000006
SCANHADR15                        00000007
SCANHADR16                        00000000
SCANHADR17                        00000001
SCANHADR18                        00000002
SCANHADR19                        00000003
SCANHADR2                         00000002
SCANHADR20                        00000004
SCANHADR21                        00000005
SCANHADR3                         00000003
SCANHADR4                         00000004
SCANHADR5                         00000005
SCANHADR6                         00000006
SCANHADR7                         00000007
SCANHADR8                         00000000
MPASM 5.87                           RGB.ASM   2-1-2024  8:48:44         PAGE 60


SYMBOL TABLE
  LABEL                             VALUE 

SCANHADR9                         00000001
SCANHADRH                         00000F4D
SCANHADRL                         00000F4C
SCANHADRU                         00000F4E
SCANIE                            00000007
SCANIF                            00000007
SCANINTM                          00000003
SCANINVALID                       00000004
SCANIP                            00000007
SCANLADR                          00000F49
SCANLADR0                         00000000
SCANLADR1                         00000001
SCANLADR10                        00000002
SCANLADR11                        00000003
SCANLADR12                        00000004
SCANLADR13                        00000005
SCANLADR14                        00000006
SCANLADR15                        00000007
SCANLADR16                        00000000
SCANLADR17                        00000001
SCANLADR18                        00000002
SCANLADR19                        00000003
SCANLADR2                         00000002
SCANLADR20                        00000004
SCANLADR21                        00000005
SCANLADR3                         00000003
SCANLADR4                         00000004
SCANLADR5                         00000005
SCANLADR6                         00000006
SCANLADR7                         00000007
SCANLADR8                         00000000
SCANLADR9                         00000001
SCANLADRH                         00000F4A
SCANLADRL                         00000F49
SCANLADRU                         00000F4B
SCANMD                            00000003
SCANMODE0                         00000000
SCANMODE1                         00000001
SCANTRIG                          00000F50
SCANTSEL0                         00000000
SCANTSEL1                         00000001
SCANTSEL2                         00000002
SCANTSEL3                         00000003
SCIE                              00000005
SCKP                              00000004
SDAHT                             00000003
SEL0                              00000000
SEL1                              00000001
SEL2                              00000002
SEL3                              00000003
SENDB                             00000003
SEN_SSP1CON2                      00000000
SEN_WDTCON0                       00000000
MPASM 5.87                           RGB.ASM   2-1-2024  8:48:44         PAGE 61


SYMBOL TABLE
  LABEL                             VALUE 

SEN_ZCDCON                        00000007
SHFT0                             00000000
SHFT1                             00000001
SHFT10                            00000002
SHFT11                            00000003
SHFT12                            00000004
SHFT13                            00000005
SHFT14                            00000006
SHFT15                            00000007
SHFT2                             00000002
SHFT3                             00000003
SHFT4                             00000004
SHFT5                             00000005
SHFT6                             00000006
SHFT7                             00000007
SHFT8                             00000000
SHFT9                             00000001
SHIFTM                            00000001
SHUTDOWN                          00000007
SLRA0                             00000000
SLRA1                             00000001
SLRA2                             00000002
SLRA3                             00000003
SLRA4                             00000004
SLRA5                             00000005
SLRA6                             00000006
SLRA7                             00000007
SLRB0                             00000000
SLRB1                             00000001
SLRB2                             00000002
SLRB3                             00000003
SLRB4                             00000004
SLRB5                             00000005
SLRB6                             00000006
SLRB7                             00000007
SLRC0                             00000000
SLRC1                             00000001
SLRC2                             00000002
SLRC3                             00000003
SLRC4                             00000004
SLRC5                             00000005
SLRC6                             00000006
SLRC7                             00000007
SLRCONA                           00000F0E
SLRCONB                           00000F16
SLRCONC                           00000F1E
SMP                               00000007
SOR                               00000003
SOSCEN                            00000003
SOSCPWR                           00000006
SP0                               00000000
SP1                               00000001
SP1BRG                            00000F9B
MPASM 5.87                           RGB.ASM   2-1-2024  8:48:44         PAGE 62


SYMBOL TABLE
  LABEL                             VALUE 

SP1BRGH                           00000F9C
SP1BRGL                           00000F9B
SP2                               00000002
SP3                               00000003
SP4                               00000004
SP5                               00000005
SPBRG                             00000F9B
SPBRG1                            00000F9B
SPBRGH                            00000F9C
SPBRGH1                           00000F9C
SPBRGL                            00000F9B
SPEN                              00000007
SRCS0                             00000000
SRCS1                             00000001
SRCS2                             00000002
SRCS3                             00000003
SREN                              00000005
SSP1ADD                           00000F93
SSP1BUF                           00000F92
SSP1CLKPPS                        00000EB7
SSP1CLKPPS0                       00000000
SSP1CLKPPS1                       00000001
SSP1CLKPPS2                       00000002
SSP1CLKPPS3                       00000003
SSP1CLKPPS4                       00000004
SSP1CON1                          00000F96
SSP1CON2                          00000F97
SSP1CON3                          00000F98
SSP1DATPPS                        00000EB8
SSP1DATPPS0                       00000000
SSP1DATPPS1                       00000001
SSP1DATPPS2                       00000002
SSP1DATPPS3                       00000003
SSP1DATPPS4                       00000004
SSP1IE                            00000000
SSP1IF                            00000000
SSP1IP                            00000000
SSP1MSK                           00000F94
SSP1SSPPS                         00000EB9
SSP1SSPPS0                        00000000
SSP1SSPPS1                        00000001
SSP1SSPPS2                        00000002
SSP1SSPPS3                        00000003
SSP1SSPPS4                        00000004
SSP1STAT                          00000F95
SSPCLKPPS                         00000EB7
SSPCLKPPS0                        00000000
SSPCLKPPS1                        00000001
SSPCLKPPS2                        00000002
SSPCLKPPS3                        00000003
SSPCLKPPS4                        00000004
SSPDATPPS                         00000EB8
SSPDATPPS0                        00000000
MPASM 5.87                           RGB.ASM   2-1-2024  8:48:44         PAGE 63


SYMBOL TABLE
  LABEL                             VALUE 

SSPDATPPS1                        00000001
SSPDATPPS2                        00000002
SSPDATPPS3                        00000003
SSPDATPPS4                        00000004
SSPEN                             00000005
SSPIE                             00000000
SSPIF                             00000000
SSPIP                             00000000
SSPM0                             00000000
SSPM1                             00000001
SSPM2                             00000002
SSPM3                             00000003
SSPOV                             00000006
SSPSSPPS                          00000EB9
SSPSSPPS0                         00000000
SSPSSPPS1                         00000001
SSPSSPPS2                         00000002
SSPSSPPS3                         00000003
SSPSSPPS4                         00000004
STATE                             00000002
STATUS                            00000FD8
STKOVF                            00000007
STKPTR                            00000FFC
STKPTR0                           00000000
STKPTR1                           00000001
STKPTR2                           00000002
STKPTR3                           00000003
STKPTR4                           00000004
STKPTR5                           00000005
STKUNF                            00000006
STRA                              00000000
STRB                              00000001
STRC                              00000002
STRD                              00000003
SWDTEN                            00000000
SYNC_CM1CON0                      00000000
SYNC_CM2CON0                      00000000
SYNC_TX1STA                       00000004
SYNC_TXSTA                        00000004
SYNC_TXSTA1                       00000004
SYSCMD                            00000007
T016BIT                           00000004
T0ASYNC                           00000004
T0CKIPPS                          00000EA4
T0CKIPPS0                         00000000
T0CKIPPS1                         00000001
T0CKIPPS2                         00000002
T0CKIPPS3                         00000003
T0CKPS0                           00000000
T0CKPS1                           00000001
T0CKPS2                           00000002
T0CKPS3                           00000003
T0CON0                            00000FD5
MPASM 5.87                           RGB.ASM   2-1-2024  8:48:44         PAGE 64


SYMBOL TABLE
  LABEL                             VALUE 

T0CON1                            00000FD6
T0CS0                             00000005
T0CS1                             00000006
T0CS2                             00000007
T0EN                              00000007
T0OUT                             00000005
T0OUTPS0                          00000000
T0OUTPS1                          00000001
T0OUTPS2                          00000002
T0OUTPS3                          00000003
T0PR0                             00000000
T0PR1                             00000001
T0PR2                             00000002
T0PR3                             00000003
T0PR4                             00000004
T0PR5                             00000005
T0PR6                             00000006
T0PR7                             00000007
T0PS0                             00000000
T0PS1                             00000001
T0PS2                             00000002
T0PS3                             00000003
T1CKIPPS                          00000EA5
T1CKIPPS0                         00000000
T1CKIPPS1                         00000001
T1CKIPPS2                         00000002
T1CKIPPS3                         00000003
T1CKIPPS4                         00000004
T1CKPS0                           00000004
T1CKPS1                           00000005
T1CLK                             00000FD2
T1CON                             00000FCF
T1CS0                             00000000
T1CS1                             00000001
T1CS2                             00000002
T1CS3                             00000003
T1GATE                            00000FD1
T1GCON                            00000FD0
T1GE                              00000007
T1GGO                             00000003
T1GGO_NOT_DONE                    00000003
T1GPOL                            00000006
T1GPPS                            00000EA6
T1GPPS0                           00000000
T1GPPS1                           00000001
T1GPPS2                           00000002
T1GPPS3                           00000003
T1GPPS4                           00000004
T1GSPM                            00000004
T1GSS0                            00000000
T1GSS1                            00000001
T1GSS2                            00000002
T1GSS3                            00000003
MPASM 5.87                           RGB.ASM   2-1-2024  8:48:44         PAGE 65


SYMBOL TABLE
  LABEL                             VALUE 

T1GTM                             00000005
T1GVAL                            00000002
T1RD16                            00000001
T2CKPOL                           00000006
T2CKPS0                           00000004
T2CKPS1                           00000005
T2CKPS2                           00000006
T2CKSYNC                          00000005
T2CLK                             00000FBF
T2CLKCON                          00000FBF
T2CON                             00000FBD
T2CS0                             00000000
T2CS1                             00000001
T2CS2                             00000002
T2CS3                             00000003
T2HLT                             00000FBE
T2INPPS                           00000EAB
T2INPPS0                          00000000
T2INPPS1                          00000001
T2INPPS2                          00000002
T2INPPS3                          00000003
T2INPPS4                          00000004
T2MODE0                           00000000
T2MODE1                           00000001
T2MODE2                           00000002
T2MODE3                           00000003
T2MODE4                           00000004
T2ON                              00000007
T2OUTPS0                          00000000
T2OUTPS1                          00000001
T2OUTPS2                          00000002
T2OUTPS3                          00000003
T2PR                              00000FBC
T2PSYNC                           00000007
T2RSEL0                           00000000
T2RSEL1                           00000001
T2RSEL2                           00000002
T2RSEL3                           00000003
T2RST                             00000FC0
T2TMR                             00000FBB
T3CKIPPS                          00000EA7
T3CKIPPS0                         00000000
T3CKIPPS1                         00000001
T3CKIPPS2                         00000002
T3CKIPPS3                         00000003
T3CKIPPS4                         00000004
T3CKPS0                           00000004
T3CKPS1                           00000005
T3CLK                             00000FCC
T3CON                             00000FC9
T3CS0                             00000000
T3CS1                             00000001
T3CS2                             00000002
MPASM 5.87                           RGB.ASM   2-1-2024  8:48:44         PAGE 66


SYMBOL TABLE
  LABEL                             VALUE 

T3CS3                             00000003
T3GATE                            00000FCB
T3GCON                            00000FCA
T3GE                              00000007
T3GGO                             00000003
T3GGO_NOT_DONE                    00000003
T3GPOL                            00000006
T3GPPS                            00000EA8
T3GPPS0                           00000000
T3GPPS1                           00000001
T3GPPS2                           00000002
T3GPPS3                           00000003
T3GPPS4                           00000004
T3GSPM                            00000004
T3GSS0                            00000000
T3GSS1                            00000001
T3GSS2                            00000002
T3GSS3                            00000003
T3GTM                             00000005
T3GVAL                            00000002
T3RD16                            00000001
T4CKPOL                           00000006
T4CKPS0                           00000004
T4CKPS1                           00000005
T4CKPS2                           00000006
T4CKSYNC                          00000005
T4CLK                             00000FB9
T4CLKCON                          00000FB9
T4CON                             00000FB7
T4CS0                             00000000
T4CS1                             00000001
T4CS2                             00000002
T4CS3                             00000003
T4HLT                             00000FB8
T4INPPS                           00000EAC
T4INPPS0                          00000000
T4INPPS1                          00000001
T4INPPS2                          00000002
T4INPPS3                          00000003
T4INPPS4                          00000004
T4MODE0                           00000000
T4MODE1                           00000001
T4MODE2                           00000002
T4MODE3                           00000003
T4MODE4                           00000004
T4ON                              00000007
T4OUTPS0                          00000000
T4OUTPS1                          00000001
T4OUTPS2                          00000002
T4OUTPS3                          00000003
T4PR                              00000FB6
T4PSYNC                           00000007
T4RSEL0                           00000000
MPASM 5.87                           RGB.ASM   2-1-2024  8:48:44         PAGE 67


SYMBOL TABLE
  LABEL                             VALUE 

T4RSEL1                           00000001
T4RSEL2                           00000002
T4RSEL3                           00000003
T4RST                             00000FBA
T4TMR                             00000FB5
T5CKIPPS                          00000EA9
T5CKIPPS0                         00000000
T5CKIPPS1                         00000001
T5CKIPPS2                         00000002
T5CKIPPS3                         00000003
T5CKIPPS4                         00000004
T5CKPS0                           00000004
T5CKPS1                           00000005
T5CLK                             00000FC6
T5CON                             00000FC3
T5CS0                             00000000
T5CS1                             00000001
T5CS2                             00000002
T5CS3                             00000003
T5GATE                            00000FC5
T5GCON                            00000FC4
T5GE                              00000007
T5GGO                             00000003
T5GGO_NOT_DONE                    00000003
T5GPOL                            00000006
T5GPPS                            00000EAA
T5GPPS0                           00000000
T5GPPS1                           00000001
T5GPPS2                           00000002
T5GPPS3                           00000003
T5GPPS4                           00000004
T5GSPM                            00000004
T5GSS0                            00000000
T5GSS1                            00000001
T5GSS2                            00000002
T5GSS3                            00000003
T5GTM                             00000005
T5GVAL                            00000002
T5RD16                            00000001
T6CKPOL                           00000006
T6CKPS0                           00000004
T6CKPS1                           00000005
T6CKPS2                           00000006
T6CKSYNC                          00000005
T6CLK                             00000FB3
T6CLKCON                          00000FB3
T6CON                             00000FB1
T6CS0                             00000000
T6CS1                             00000001
T6CS2                             00000002
T6CS3                             00000003
T6HLT                             00000FB2
T6INPPS                           00000EAD
MPASM 5.87                           RGB.ASM   2-1-2024  8:48:44         PAGE 68


SYMBOL TABLE
  LABEL                             VALUE 

T6INPPS0                          00000000
T6INPPS1                          00000001
T6INPPS2                          00000002
T6INPPS3                          00000003
T6INPPS4                          00000004
T6MODE0                           00000000
T6MODE1                           00000001
T6MODE2                           00000002
T6MODE3                           00000003
T6MODE4                           00000004
T6ON                              00000007
T6OUTPS0                          00000000
T6OUTPS1                          00000001
T6OUTPS2                          00000002
T6OUTPS3                          00000003
T6PR                              00000FB0
T6PSYNC                           00000007
T6RSEL0                           00000000
T6RSEL1                           00000001
T6RSEL2                           00000002
T6RSEL3                           00000003
T6RST                             00000FB4
T6TMR                             00000FAF
TABLAT                            00000FF5
TBLPTR                            00000FF6
TBLPTRH                           00000FF7
TBLPTRL                           00000FF6
TBLPTRU                           00000FF8
TMR0                              00000FD3
TMR0H                             00000FD4
TMR0H0                            00000000
TMR0H1                            00000001
TMR0H2                            00000002
TMR0H3                            00000003
TMR0H4                            00000004
TMR0H5                            00000005
TMR0H6                            00000006
TMR0H7                            00000007
TMR0IE                            00000005
TMR0IF                            00000005
TMR0IP                            00000005
TMR0L                             00000FD3
TMR0L0                            00000000
TMR0L1                            00000001
TMR0L2                            00000002
TMR0L3                            00000003
TMR0L4                            00000004
TMR0L5                            00000005
TMR0L6                            00000006
TMR0L7                            00000007
TMR0MD                            00000000
TMR1                              00000FCD
TMR10                             00000000
MPASM 5.87                           RGB.ASM   2-1-2024  8:48:44         PAGE 69


SYMBOL TABLE
  LABEL                             VALUE 

TMR11                             00000001
TMR110                            00000002
TMR111                            00000003
TMR112                            00000004
TMR113                            00000005
TMR114                            00000006
TMR115                            00000007
TMR12                             00000002
TMR13                             00000003
TMR14                             00000004
TMR15                             00000005
TMR16                             00000006
TMR17                             00000007
TMR18                             00000000
TMR19                             00000001
TMR1CLK                           00000FD2
TMR1GATE                          00000FD1
TMR1GIE                           00000000
TMR1GIF                           00000000
TMR1GIP                           00000000
TMR1H                             00000FCE
TMR1H0                            00000000
TMR1H1                            00000001
TMR1H2                            00000002
TMR1H3                            00000003
TMR1H4                            00000004
TMR1H5                            00000005
TMR1H6                            00000006
TMR1H7                            00000007
TMR1IE                            00000000
TMR1IF                            00000000
TMR1IP                            00000000
TMR1L                             00000FCD
TMR1L0                            00000000
TMR1L1                            00000001
TMR1L2                            00000002
TMR1L3                            00000003
TMR1L4                            00000004
TMR1L5                            00000005
TMR1L6                            00000006
TMR1L7                            00000007
TMR1MD                            00000001
TMR1ON                            00000000
TMR2                              00000FBB
TMR2IE                            00000001
TMR2IF                            00000001
TMR2IP                            00000001
TMR2MD                            00000002
TMR2ON                            00000007
TMR3                              00000FC7
TMR30                             00000000
TMR31                             00000001
TMR310                            00000002
MPASM 5.87                           RGB.ASM   2-1-2024  8:48:44         PAGE 70


SYMBOL TABLE
  LABEL                             VALUE 

TMR311                            00000003
TMR312                            00000004
TMR313                            00000005
TMR314                            00000006
TMR315                            00000007
TMR32                             00000002
TMR33                             00000003
TMR34                             00000004
TMR35                             00000005
TMR36                             00000006
TMR37                             00000007
TMR38                             00000000
TMR39                             00000001
TMR3CLK                           00000FCC
TMR3GATE                          00000FCB
TMR3GIE                           00000001
TMR3GIF                           00000001
TMR3GIP                           00000001
TMR3H                             00000FC8
TMR3H0                            00000000
TMR3H1                            00000001
TMR3H2                            00000002
TMR3H3                            00000003
TMR3H4                            00000004
TMR3H5                            00000005
TMR3H6                            00000006
TMR3H7                            00000007
TMR3IE                            00000002
TMR3IF                            00000002
TMR3IP                            00000002
TMR3L                             00000FC7
TMR3L0                            00000000
TMR3L1                            00000001
TMR3L2                            00000002
TMR3L3                            00000003
TMR3L4                            00000004
TMR3L5                            00000005
TMR3L6                            00000006
TMR3L7                            00000007
TMR3MD                            00000003
TMR3ON                            00000000
TMR4                              00000FB5
TMR4IE                            00000003
TMR4IF                            00000003
TMR4IP                            00000003
TMR4MD                            00000004
TMR4ON                            00000007
TMR5                              00000FC1
TMR50                             00000000
TMR51                             00000001
TMR510                            00000002
TMR511                            00000003
TMR512                            00000004
MPASM 5.87                           RGB.ASM   2-1-2024  8:48:44         PAGE 71


SYMBOL TABLE
  LABEL                             VALUE 

TMR513                            00000005
TMR514                            00000006
TMR515                            00000007
TMR52                             00000002
TMR53                             00000003
TMR54                             00000004
TMR55                             00000005
TMR56                             00000006
TMR57                             00000007
TMR58                             00000000
TMR59                             00000001
TMR5CLK                           00000FC6
TMR5GATE                          00000FC5
TMR5GIE                           00000002
TMR5GIF                           00000002
TMR5GIP                           00000002
TMR5H                             00000FC2
TMR5H0                            00000000
TMR5H1                            00000001
TMR5H2                            00000002
TMR5H3                            00000003
TMR5H4                            00000004
TMR5H5                            00000005
TMR5H6                            00000006
TMR5H7                            00000007
TMR5IE                            00000004
TMR5IF                            00000004
TMR5IP                            00000004
TMR5L                             00000FC1
TMR5L0                            00000000
TMR5L1                            00000001
TMR5L2                            00000002
TMR5L3                            00000003
TMR5L4                            00000004
TMR5L5                            00000005
TMR5L6                            00000006
TMR5L7                            00000007
TMR5MD                            00000005
TMR5ON                            00000000
TMR6                              00000FAF
TMR6IE                            00000005
TMR6IF                            00000005
TMR6IP                            00000005
TMR6MD                            00000006
TMR6ON                            00000007
TO                                00000006
TOS                               00000FFD
TOSH                              00000FFE
TOSL                              00000FFD
TOSU                              00000FFF
TRISA                             00000F88
TRISA0                            00000000
TRISA1                            00000001
MPASM 5.87                           RGB.ASM   2-1-2024  8:48:44         PAGE 72


SYMBOL TABLE
  LABEL                             VALUE 

TRISA2                            00000002
TRISA3                            00000003
TRISA4                            00000004
TRISA5                            00000005
TRISA6                            00000006
TRISA7                            00000007
TRISB                             00000F89
TRISB0                            00000000
TRISB1                            00000001
TRISB2                            00000002
TRISB3                            00000003
TRISB4                            00000004
TRISB5                            00000005
TRISB6                            00000006
TRISB7                            00000007
TRISC                             00000F8A
TRISC0                            00000000
TRISC1                            00000001
TRISC2                            00000002
TRISC3                            00000003
TRISC4                            00000004
TRISC5                            00000005
TRISC6                            00000006
TRISC7                            00000007
TRMT                              00000001
TSEL0                             00000000
TSEL1                             00000001
TSEL2                             00000002
TSEL3                             00000003
TSEN                              00000005
TSRNG                             00000004
TUN0                              00000000
TUN1                              00000001
TUN2                              00000002
TUN3                              00000003
TUN4                              00000004
TUN5                              00000005
TX1IE                             00000004
TX1IF                             00000004
TX1PPS                            00000EB6
TX1REG                            00000F9A
TX1STA                            00000F9E
TX9                               00000006
TX9D                              00000000
TXEN                              00000005
TXIE                              00000004
TXIF                              00000004
TXIP                              00000004
TXPPS                             00000EB6
TXPPS0                            00000000
TXPPS1                            00000001
TXPPS2                            00000002
TXPPS3                            00000003
MPASM 5.87                           RGB.ASM   2-1-2024  8:48:44         PAGE 73


SYMBOL TABLE
  LABEL                             VALUE 

TXPPS4                            00000004
TXREG                             00000F9A
TXREG1                            00000F9A
TXSTA                             00000F9E
TXSTA1                            00000F9E
UA                                00000001
UART1MD                           00000006
VREGCON                           00000EDF
VREGPM0                           00000000
VREGPM1                           00000001
W                                 00000000
WCOL                              00000007
WDTCON0                           00000ED2
WDTCON1                           00000ED3
WDTCS0                            00000004
WDTCS1                            00000005
WDTCS2                            00000006
WDTPS0                            00000001
WDTPS1                            00000002
WDTPS2                            00000003
WDTPS3                            00000004
WDTPS4                            00000005
WDTPSCNT0                         00000000
WDTPSCNT1                         00000001
WDTPSCNT10                        00000002
WDTPSCNT11                        00000003
WDTPSCNT12                        00000004
WDTPSCNT13                        00000005
WDTPSCNT14                        00000006
WDTPSCNT15                        00000007
WDTPSCNT16                        00000000
WDTPSCNT17                        00000001
WDTPSCNT2                         00000002
WDTPSCNT3                         00000003
WDTPSCNT4                         00000004
WDTPSCNT5                         00000005
WDTPSCNT6                         00000006
WDTPSCNT7                         00000007
WDTPSCNT8                         00000000
WDTPSCNT9                         00000001
WDTPSH                            00000ED5
WDTPSL                            00000ED4
WDTSEN                            00000000
WDTSTATE                          00000002
WDTTMR                            00000ED6
WDTTMR0                           00000003
WDTTMR1                           00000004
WDTTMR2                           00000005
WDTTMR3                           00000006
WDTTMR4                           00000007
WDTWINDOW0                        00000000
WDTWINDOW1                        00000001
WDTWINDOW2                        00000002
MPASM 5.87                           RGB.ASM   2-1-2024  8:48:44         PAGE 74


SYMBOL TABLE
  LABEL                             VALUE 

WDTWV                             00000005
WINDOW0                           00000000
WINDOW1                           00000001
WINDOW2                           00000002
WPUA                              00000F10
WPUA0                             00000000
WPUA1                             00000001
WPUA2                             00000002
WPUA3                             00000003
WPUA4                             00000004
WPUA5                             00000005
WPUA6                             00000006
WPUA7                             00000007
WPUB                              00000F18
WPUB0                             00000000
WPUB1                             00000001
WPUB2                             00000002
WPUB3                             00000003
WPUB4                             00000004
WPUB5                             00000005
WPUB6                             00000006
WPUB7                             00000007
WPUC                              00000F20
WPUC0                             00000000
WPUC1                             00000001
WPUC2                             00000002
WPUC3                             00000003
WPUC4                             00000004
WPUC5                             00000005
WPUC6                             00000006
WPUC7                             00000007
WPUE                              00000F2D
WPUE3                             00000003
WR                                00000001
WREG                              00000FE8
WREN                              00000002
WRERR                             00000003
WUE                               00000001
X1                                00000001
X10                               00000002
X11                               00000003
X12                               00000004
X13                               00000005
X14                               00000006
X15                               00000007
X2                                00000002
X3                                00000003
X4                                00000004
X5                                00000005
X6                                00000006
X7                                00000007
X8                                00000000
X9                                00000001
MPASM 5.87                           RGB.ASM   2-1-2024  8:48:44         PAGE 75


SYMBOL TABLE
  LABEL                             VALUE 

Z                                 00000002
ZCDCON                            00000F32
ZCDIE                             00000006
ZCDIF                             00000006
ZCDINTN                           00000000
ZCDINTP                           00000001
ZCDIP                             00000006
ZCDMD                             00000000
ZCDOUT                            00000005
ZCDPOL                            00000004
ZCDSEN                            00000007
_BOREN_NOSLP_2L                   000000BF
_BOREN_OFF_2L                     0000003F
_BOREN_ON_2L                      0000007F
_BOREN_SBORDIS_2L                 000000FF
_BORV_VBOR_245_2H                 000000FE
_BORV_VBOR_270_2H                 000000FD
_BORV_VBOR_285_2H                 000000FC
_BORV_VBOR_2P45_2H                000000FF
_CLKOUTEN_OFF_1H                  000000FF
_CLKOUTEN_ON_1H                   000000FE
_CONFIG1H                         00300001
_CONFIG1L                         00300000
_CONFIG2H                         00300003
_CONFIG2L                         00300002
_CONFIG3H                         00300005
_CONFIG3L                         00300004
_CONFIG4H                         00300007
_CONFIG4L                         00300006
_CONFIG5H                         00300009
_CONFIG5L                         00300008
_CONFIG6H                         0030000B
_CONFIG6L                         0030000A
_CPD_OFF_5L                       000000FF
_CPD_ON_5L                        000000FD
_CP_OFF_5L                        000000FF
_CP_ON_5L                         000000FE
_CSWEN_OFF_1H                     000000F7
_CSWEN_ON_1H                      000000FF
_DEBUG_OFF_2H                     000000FF
_DEBUG_ON_2H                      000000DF
_DEVID1                           003FFFFE
_DEVID2                           003FFFFF
_EBTR0_OFF_6L                     000000FF
_EBTR0_ON_6L                      000000FE
_EBTR1_OFF_6L                     000000FF
_EBTR1_ON_6L                      000000FD
_EBTR2_OFF_6L                     000000FF
_EBTR2_ON_6L                      000000FB
_EBTR3_OFF_6L                     000000FF
_EBTR3_ON_6L                      000000F7
_EBTRB_OFF_6H                     000000FF
_EBTRB_ON_6H                      000000FD
MPASM 5.87                           RGB.ASM   2-1-2024  8:48:44         PAGE 76


SYMBOL TABLE
  LABEL                             VALUE 

_FCMEN_OFF_1H                     000000DF
_FCMEN_ON_1H                      000000FF
_FEXTOSC_ECH_1L                   000000FF
_FEXTOSC_ECL_1L                   000000FD
_FEXTOSC_ECM_1L                   000000FE
_FEXTOSC_HS_1L                    000000FA
_FEXTOSC_LP_1L                    000000F8
_FEXTOSC_OFF_1L                   000000FC
_FEXTOSC_RESERVED_1L              000000FB
_FEXTOSC_XT_1L                    000000F9
_IDLOC0                           00200000
_IDLOC1                           00200001
_IDLOC10                          0020000A
_IDLOC11                          0020000B
_IDLOC12                          0020000C
_IDLOC13                          0020000D
_IDLOC14                          0020000E
_IDLOC15                          0020000F
_IDLOC2                           00200002
_IDLOC3                           00200003
_IDLOC4                           00200004
_IDLOC5                           00200005
_IDLOC6                           00200006
_IDLOC7                           00200007
_IDLOC8                           00200008
_IDLOC9                           00200009
_LPBOREN_OFF_2L                   000000FF
_LPBOREN_ON_2L                    000000DF
_LVP_OFF_4H                       000000DF
_LVP_ON_4H                        000000FF
_MCLRE_EXTMCLR_2L                 000000FF
_MCLRE_INTMCLR_2L                 000000FE
_PPS1WAY_OFF_2H                   000000F7
_PPS1WAY_ON_2H                    000000FF
_PWRTE_OFF_2L                     000000FF
_PWRTE_ON_2L                      000000FD
_RSTOSC_EXTOSC_1L                 000000FF
_RSTOSC_EXTOSC_4PLL_1L            000000AF
_RSTOSC_HFINTOSC_1MHZ_1L          000000EF
_RSTOSC_HFINTOSC_64MHZ_1L         0000008F
_RSTOSC_LFINTOSC_1L               000000DF
_RSTOSC_RESERVED_1_1L             0000009F
_RSTOSC_RESERVED_2_1L             000000BF
_RSTOSC_SOSC_1L                   000000CF
_SCANE_OFF_4H                     000000EF
_SCANE_ON_4H                      000000FF
_STVREN_OFF_2H                    000000EF
_STVREN_ON_2H                     000000FF
_WDTCCS_HFINTOSC_3H               000000CF
_WDTCCS_LFINTOSC_3H               000000C7
_WDTCCS_SC_3H                     000000FF
_WDTCPS_WDTCPS_0_3L               000000E0
_WDTCPS_WDTCPS_10_3L              000000EA
MPASM 5.87                           RGB.ASM   2-1-2024  8:48:44         PAGE 77


SYMBOL TABLE
  LABEL                             VALUE 

_WDTCPS_WDTCPS_11_3L              000000EB
_WDTCPS_WDTCPS_12_3L              000000EC
_WDTCPS_WDTCPS_13_3L              000000ED
_WDTCPS_WDTCPS_14_3L              000000EE
_WDTCPS_WDTCPS_15_3L              000000EF
_WDTCPS_WDTCPS_16_3L              000000F0
_WDTCPS_WDTCPS_17_3L              000000F1
_WDTCPS_WDTCPS_18_3L              000000F2
_WDTCPS_WDTCPS_19_3L              000000F3
_WDTCPS_WDTCPS_1_3L               000000E1
_WDTCPS_WDTCPS_20_3L              000000F4
_WDTCPS_WDTCPS_21_3L              000000F5
_WDTCPS_WDTCPS_22_3L              000000F6
_WDTCPS_WDTCPS_23_3L              000000F7
_WDTCPS_WDTCPS_24_3L              000000F8
_WDTCPS_WDTCPS_25_3L              000000F9
_WDTCPS_WDTCPS_26_3L              000000FA
_WDTCPS_WDTCPS_27_3L              000000FB
_WDTCPS_WDTCPS_28_3L              000000FC
_WDTCPS_WDTCPS_29_3L              000000FD
_WDTCPS_WDTCPS_2_3L               000000E2
_WDTCPS_WDTCPS_30_3L              000000FE
_WDTCPS_WDTCPS_31_3L              000000FF
_WDTCPS_WDTCPS_3_3L               000000E3
_WDTCPS_WDTCPS_4_3L               000000E4
_WDTCPS_WDTCPS_5_3L               000000E5
_WDTCPS_WDTCPS_6_3L               000000E6
_WDTCPS_WDTCPS_7_3L               000000E7
_WDTCPS_WDTCPS_8_3L               000000E8
_WDTCPS_WDTCPS_9_3L               000000E9
_WDTCWS_WDTCWS_0_3H               000000F8
_WDTCWS_WDTCWS_1_3H               000000F9
_WDTCWS_WDTCWS_2_3H               000000FA
_WDTCWS_WDTCWS_3_3H               000000FB
_WDTCWS_WDTCWS_4_3H               000000FC
_WDTCWS_WDTCWS_5_3H               000000FD
_WDTCWS_WDTCWS_6_3H               000000FE
_WDTCWS_WDTCWS_7_3H               000000FF
_WDTE_NSLEEP_3L                   000000DF
_WDTE_OFF_3L                      0000009F
_WDTE_ON_3L                       000000FF
_WDTE_SWDTEN_3L                   000000BF
_WRT0_OFF_4L                      000000FF
_WRT0_ON_4L                       000000FE
_WRT1_OFF_4L                      000000FF
_WRT1_ON_4L                       000000FD
_WRT2_OFF_4L                      000000FF
_WRT2_ON_4L                       000000FB
_WRT3_OFF_4L                      000000FF
_WRT3_ON_4L                       000000F7
_WRTB_OFF_4H                      000000FF
_WRTB_ON_4H                       000000FD
_WRTC_OFF_4H                      000000FF
MPASM 5.87                           RGB.ASM   2-1-2024  8:48:44         PAGE 78


SYMBOL TABLE
  LABEL                             VALUE 

_WRTC_ON_4H                       000000FE
_WRTD_OFF_4H                      000000FF
_WRTD_ON_4H                       000000FB
_XINST_OFF_2H                     000000FF
_XINST_ON_2H                      0000007F
_ZCD_OFF_2H                       000000FF
_ZCD_ON_2H                        000000FB
__18F25K40                        00000001
all_blue_1                        000001DC
all_blue_2                        000001F2
all_blue_3                        00000208
all_blue_4                        0000021E
all_blue_5                        00000234
all_blue_6                        0000024A
all_blue_7                        00000260
all_blue_8                        00000276
all_green_1                       0000012C
all_green_2                       00000142
all_green_3                       00000158
all_green_4                       0000016E
all_green_5                       00000184
all_green_6                       0000019A
all_green_7                       000001B0
all_green_8                       000001C6
all_red_1                         0000028C
all_red_2                         000002A2
all_red_3                         000002B8
all_red_4                         000002CE
all_red_5                         000002E4
all_red_6                         000002FA
all_red_7                         00000310
all_red_8                         00000326
color_blue_1                      000009BE
color_blue_2                      00000A20
color_blue_3                      00000A82
color_blue_4                      00000AE4
color_blue_5                      00000B46
color_blue_6                      00000BA8
color_blue_7                      00000C0A
color_blue_8                      00000C6C
color_green_1                     0000039E
color_green_2                     00000400
color_green_3                     00000462
color_green_4                     000004C4
color_green_5                     00000526
color_green_6                     00000588
color_green_7                     000005EA
color_green_8                     0000064C
color_off                         0000033C
color_red_1                       000006AE
color_red_2                       00000710
color_red_3                       00000772
color_red_4                       000007D4
MPASM 5.87                           RGB.ASM   2-1-2024  8:48:44         PAGE 79


SYMBOL TABLE
  LABEL                             VALUE 

color_red_5                       00000836
color_red_6                       00000898
color_red_7                       000008FA
color_red_8                       0000095C
cpt1                              00000004
cpt2                              00000005
incre                             00000003
send0                             000000E0
send1                             00000104

Errors   :     0
Warnings :    11 reported,     0 suppressed
Messages :     0 reported,     0 suppressed

